(dp0
S'seed'
p1
I5510315
sS'name'
p2
S'traffic-request-khaleesi.dc.07'
p3
sS'reqs'
p4
(lp5
(dp6
S'A'
p7
(dp8
S'src'
p9
I6
sS'dst'
p10
I16
ssS'chain'
p11
S'src.0.(1,2,3).4.5.dst'
p12
sS'input_datarate'
p13
I6603024
sS'l_req'
p14
(dp15
(S'src'
p16
S'dst'
p17
tp18
I99999999
ssS'r'
p19
(dp20
g9
F1.0
sg10
F1.0
sS'1'
p21
F1.0
sS'0'
p22
F1.0
sS'3'
p23
F1.0
sS'2'
p24
F1.0
sS'5'
p25
F1.0
sS'4'
p26
F1.0
ssS'UF'
p27
(dp28
g9
I6
sg10
I16
sg21
I3
sg22
I4
sg23
I6
sg24
I0
sg25
I2
sg26
I1
ssa(dp29
g7
(dp30
g9
I1
sg10
I7
ssg11
S'src.0.(1,2).dst'
p31
sg13
I2277680
sg14
(dp32
g18
I99999999
ssg19
(dp33
g21
F1.0
sg9
F1.0
sg10
F1.0
sg24
F1.0
sg22
F1.0
ssg27
(dp34
g21
I0
sg9
I1
sg10
I7
sg24
I5
sg22
I6
ssa(dp35
g7
(dp36
g9
I3
sg10
I15
ssg11
S'src.0.(1,2,3).dst'
p37
sg13
I1717322
sg14
(dp38
g18
I99999999
ssg19
(dp39
g9
F1.0
sg10
F1.0
sg21
F1.0
sg22
F1.0
sg23
F1.0
sg24
F1.0
ssg27
(dp40
g9
I3
sg10
I15
sg21
I4
sg22
I3
sg23
I2
sg24
I0
ssa(dp41
g7
(dp42
g9
I1
sg10
I15
ssg11
S'src.0.(1,2).dst'
p43
sg13
I2316338
sg14
(dp44
g18
I99999999
ssg19
(dp45
g21
F1.0
sg9
F1.0
sg10
F1.0
sg24
F1.0
sg22
F1.0
ssg27
(dp46
g21
I3
sg9
I1
sg10
I15
sg24
I2
sg22
I6
ssa(dp47
g7
(dp48
g9
I10
sg10
I15
ssg11
S'src.0.(1,2,3).4.dst'
p49
sg13
I4442472
sg14
(dp50
g18
I99999999
ssg19
(dp51
g9
F1.0
sg10
F1.0
sg21
F1.0
sg22
F1.0
sg23
F1.0
sg24
F1.0
sg26
F1.0
ssg27
(dp52
g9
I10
sg10
I15
sg21
I1
sg22
I3
sg23
I4
sg24
I6
sg26
I0
ssa(dp53
g7
(dp54
g9
I10
sg10
I17
ssg11
S'src.0.(1,2).dst'
p55
sg13
I2302052
sg14
(dp56
g18
I99999999
ssg19
(dp57
g21
F1.0
sg9
F1.0
sg10
F1.0
sg24
F1.0
sg22
F1.0
ssg27
(dp58
g21
I6
sg9
I10
sg10
I17
sg24
I2
sg22
I1
ssa(dp59
g7
(dp60
g9
I10
sg10
I20
ssg11
S'src.0.(1,2,3).4.dst'
p61
sg13
I8681289
sg14
(dp62
g18
I99999999
ssg19
(dp63
g9
F1.0
sg10
F1.0
sg21
F1.0
sg22
F1.0
sg23
F1.0
sg24
F1.0
sg26
F1.0
ssg27
(dp64
g9
I10
sg10
I20
sg21
I2
sg22
I3
sg23
I0
sg24
I5
sg26
I4
ssa(dp65
g7
(dp66
g9
I6
sg10
I11
ssg11
S'src.0.(1,2,3).4.dst'
p67
sg13
I3767919
sg14
(dp68
g18
I99999999
ssg19
(dp69
g9
F1.0
sg10
F1.0
sg21
F1.0
sg22
F1.0
sg23
F1.0
sg24
F1.0
sg26
F1.0
ssg27
(dp70
g9
I6
sg10
I11
sg21
I2
sg22
I3
sg23
I4
sg24
I5
sg26
I6
ssa(dp71
g7
(dp72
g9
I12
sg10
I15
ssg11
S'src.0.(1,2,3).dst'
p73
sg13
I4674551
sg14
(dp74
g18
I99999999
ssg19
(dp75
g9
F1.0
sg10
F1.0
sg21
F1.0
sg22
F1.0
sg23
F1.0
sg24
F1.0
ssg27
(dp76
g9
I12
sg10
I15
sg21
I3
sg22
I4
sg23
I0
sg24
I5
ssa(dp77
g7
(dp78
g9
I6
sg10
I8
ssg11
S'src.0.(1,2).dst'
p79
sg13
I7384842
sg14
(dp80
g18
I99999999
ssg19
(dp81
g21
F1.0
sg9
F1.0
sg10
F1.0
sg24
F1.0
sg22
F1.0
ssg27
(dp82
g21
I1
sg9
I6
sg10
I8
sg24
I4
sg22
I6
ssa(dp83
g7
(dp84
g9
I14
sg10
I19
ssg11
S'src.0.(1,2).dst'
p85
sg13
I2558701
sg14
(dp86
g18
I99999999
ssg19
(dp87
g21
F1.0
sg9
F1.0
sg10
F1.0
sg24
F1.0
sg22
F1.0
ssg27
(dp88
g21
I0
sg9
I14
sg10
I19
sg24
I4
sg22
I1
ssa(dp89
g7
(dp90
g9
I11
sg10
I12
ssg11
S'src.0.(1,2,3).4.5.dst'
p91
sg13
I3759260
sg14
(dp92
g18
I99999999
ssg19
(dp93
g9
F1.0
sg10
F1.0
sg21
F1.0
sg22
F1.0
sg23
F1.0
sg24
F1.0
sg25
F1.0
sg26
F1.0
ssg27
(dp94
g9
I11
sg10
I12
sg21
I1
sg22
I0
sg23
I6
sg24
I5
sg25
I4
sg26
I2
ssa(dp95
g7
(dp96
g9
I14
sg10
I20
ssg11
S'src.0.(1,2,3).dst'
p97
sg13
I3450311
sg14
(dp98
g18
I99999999
ssg19
(dp99
g9
F1.0
sg10
F1.0
sg21
F1.0
sg22
F1.0
sg23
F1.0
sg24
F1.0
ssg27
(dp100
g9
I14
sg10
I20
sg21
I4
sg22
I5
sg23
I1
sg24
I3
ssa(dp101
g7
(dp102
g9
I10
sg10
I15
ssg11
S'src.0.(1,2,3).dst'
p103
sg13
I3387190
sg14
(dp104
g18
I99999999
ssg19
(dp105
g9
F1.0
sg10
F1.0
sg21
F1.0
sg22
F1.0
sg23
F1.0
sg24
F1.0
ssg27
(dp106
g9
I10
sg10
I15
sg21
I2
sg22
I6
sg23
I3
sg24
I5
ssa(dp107
g7
(dp108
g9
I13
sg10
I15
ssg11
S'src.0.(1,2).dst'
p109
sg13
I5527630
sg14
(dp110
g18
I99999999
ssg19
(dp111
g21
F1.0
sg9
F1.0
sg10
F1.0
sg24
F1.0
sg22
F1.0
ssg27
(dp112
g21
I6
sg9
I13
sg10
I15
sg24
I4
sg22
I2
ssa(dp113
g7
(dp114
g9
I15
sg10
I16
ssg11
S'src.0.(1,2).dst'
p115
sg13
I7536966
sg14
(dp116
g18
I99999999
ssg19
(dp117
g21
F1.0
sg9
F1.0
sg10
F1.0
sg24
F1.0
sg22
F1.0
ssg27
(dp118
g21
I4
sg9
I15
sg10
I16
sg24
I6
sg22
I3
ssa(dp119
g7
(dp120
g9
I11
sg10
I17
ssg11
S'src.0.(1,2,3).4.5.dst'
p121
sg13
I2616100
sg14
(dp122
g18
I99999999
ssg19
(dp123
g9
F1.0
sg10
F1.0
sg21
F1.0
sg22
F1.0
sg23
F1.0
sg24
F1.0
sg25
F1.0
sg26
F1.0
ssg27
(dp124
g9
I11
sg10
I17
sg21
I0
sg22
I1
sg23
I5
sg24
I6
sg25
I4
sg26
I2
ssa(dp125
g7
(dp126
g9
I12
sg10
I15
ssg11
S'src.0.(1,2).dst'
p127
sg13
I4799916
sg14
(dp128
g18
I99999999
ssg19
(dp129
g21
F1.0
sg9
F1.0
sg10
F1.0
sg24
F1.0
sg22
F1.0
ssg27
(dp130
g21
I5
sg9
I12
sg10
I15
sg24
I6
sg22
I2
ssa(dp131
g7
(dp132
g9
I6
sg10
I13
ssg11
S'src.0.(1,2,3).4.dst'
p133
sg13
I10313775
sg14
(dp134
g18
I99999999
ssg19
(dp135
g9
F1.0
sg10
F1.0
sg21
F1.0
sg22
F1.0
sg23
F1.0
sg24
F1.0
sg26
F1.0
ssg27
(dp136
g9
I6
sg10
I13
sg21
I0
sg22
I4
sg23
I1
sg24
I5
sg26
I2
ssa(dp137
g7
(dp138
g9
I11
sg10
I13
ssg11
S'src.0.(1,2).dst'
p139
sg13
I810817
sg14
(dp140
g18
I99999999
ssg19
(dp141
g21
F1.0
sg9
F1.0
sg10
F1.0
sg24
F1.0
sg22
F1.0
ssg27
(dp142
g21
I1
sg9
I11
sg10
I13
sg24
I5
sg22
I4
ssa(dp143
g7
(dp144
g9
I11
sg10
I16
ssg11
S'src.0.(1,2,3).4.5.dst'
p145
sg13
I2187347
sg14
(dp146
g18
I99999999
ssg19
(dp147
g9
F1.0
sg10
F1.0
sg21
F1.0
sg22
F1.0
sg23
F1.0
sg24
F1.0
sg25
F1.0
sg26
F1.0
ssg27
(dp148
g9
I11
sg10
I16
sg21
I5
sg22
I4
sg23
I2
sg24
I1
sg25
I3
sg26
I0
ssa(dp149
g7
(dp150
g9
I6
sg10
I8
ssg11
S'src.0.(1,2,3).dst'
p151
sg13
I11133208
sg14
(dp152
g18
I99999999
ssg19
(dp153
g9
F1.0
sg10
F1.0
sg21
F1.0
sg22
F1.0
sg23
F1.0
sg24
F1.0
ssg27
(dp154
g9
I6
sg10
I8
sg21
I6
sg22
I0
sg23
I1
sg24
I3
ssa(dp155
g7
(dp156
g9
I11
sg10
I17
ssg11
S'src.0.(1,2,3).4.5.dst'
p157
sg13
I1695050
sg14
(dp158
g18
I99999999
ssg19
(dp159
g9
F1.0
sg10
F1.0
sg21
F1.0
sg22
F1.0
sg23
F1.0
sg24
F1.0
sg25
F1.0
sg26
F1.0
ssg27
(dp160
g9
I11
sg10
I17
sg21
I0
sg22
I1
sg23
I3
sg24
I6
sg25
I2
sg26
I4
ssa(dp161
g7
(dp162
g9
I5
sg10
I15
ssg11
S'src.0.(1,2,3).4.dst'
p163
sg13
I2430363
sg14
(dp164
g18
I99999999
ssg19
(dp165
g9
F1.0
sg10
F1.0
sg21
F1.0
sg22
F1.0
sg23
F1.0
sg24
F1.0
sg26
F1.0
ssg27
(dp166
g9
I5
sg10
I15
sg21
I2
sg22
I5
sg23
I4
sg24
I6
sg26
I3
ssa(dp167
g7
(dp168
g9
I15
sg10
I17
ssg11
S'src.0.(1,2,3).4.5.dst'
p169
sg13
I6042414
sg14
(dp170
g18
I99999999
ssg19
(dp171
g9
F1.0
sg10
F1.0
sg21
F1.0
sg22
F1.0
sg23
F1.0
sg24
F1.0
sg25
F1.0
sg26
F1.0
ssg27
(dp172
g9
I15
sg10
I17
sg21
I5
sg22
I2
sg23
I6
sg24
I1
sg25
I0
sg26
I3
ssa(dp173
g7
(dp174
g9
I12
sg10
I15
ssg11
S'src.0.(1,2,3).4.5.dst'
p175
sg13
I995858
sg14
(dp176
g18
I99999999
ssg19
(dp177
g9
F1.0
sg10
F1.0
sg21
F1.0
sg22
F1.0
sg23
F1.0
sg24
F1.0
sg25
F1.0
sg26
F1.0
ssg27
(dp178
g9
I12
sg10
I15
sg21
I2
sg22
I5
sg23
I4
sg24
I3
sg25
I1
sg26
I6
ssa(dp179
g7
(dp180
g9
I5
sg10
I14
ssg11
S'src.0.(1,2,3).4.5.dst'
p181
sg13
I1641941
sg14
(dp182
g18
I99999999
ssg19
(dp183
g9
F1.0
sg10
F1.0
sg21
F1.0
sg22
F1.0
sg23
F1.0
sg24
F1.0
sg25
F1.0
sg26
F1.0
ssg27
(dp184
g9
I5
sg10
I14
sg21
I3
sg22
I4
sg23
I1
sg24
I5
sg25
I2
sg26
I0
ssa(dp185
g7
(dp186
g9
I8
sg10
I15
ssg11
S'src.0.(1,2,3).4.dst'
p187
sg13
I10006275
sg14
(dp188
g18
I99999999
ssg19
(dp189
g9
F1.0
sg10
F1.0
sg21
F1.0
sg22
F1.0
sg23
F1.0
sg24
F1.0
sg26
F1.0
ssg27
(dp190
g9
I8
sg10
I15
sg21
I5
sg22
I6
sg23
I2
sg24
I4
sg26
I0
ssa(dp191
g7
(dp192
g9
I15
sg10
I20
ssg11
S'src.0.(1,2,3).4.dst'
p193
sg13
I11827988
sg14
(dp194
g18
I99999999
ssg19
(dp195
g9
F1.0
sg10
F1.0
sg21
F1.0
sg22
F1.0
sg23
F1.0
sg24
F1.0
sg26
F1.0
ssg27
(dp196
g9
I15
sg10
I20
sg21
I5
sg22
I2
sg23
I4
sg24
I3
sg26
I0
ssa(dp197
g7
(dp198
g9
I13
sg10
I15
ssg11
S'src.0.(1,2,3).dst'
p199
sg13
I5019062
sg14
(dp200
g18
I99999999
ssg19
(dp201
g9
F1.0
sg10
F1.0
sg21
F1.0
sg22
F1.0
sg23
F1.0
sg24
F1.0
ssg27
(dp202
g9
I13
sg10
I15
sg21
I0
sg22
I3
sg23
I4
sg24
I5
ssa(dp203
g7
(dp204
g9
I7
sg10
I15
ssg11
S'src.0.(1,2).dst'
p205
sg13
I1304164
sg14
(dp206
g18
I99999999
ssg19
(dp207
g21
F1.0
sg9
F1.0
sg10
F1.0
sg24
F1.0
sg22
F1.0
ssg27
(dp208
g21
I4
sg9
I7
sg10
I15
sg24
I6
sg22
I1
ssa(dp209
g7
(dp210
g9
I15
sg10
I19
ssg11
S'src.0.(1,2,3).4.5.dst'
p211
sg13
I874899
sg14
(dp212
g18
I99999999
ssg19
(dp213
g9
F1.0
sg10
F1.0
sg21
F1.0
sg22
F1.0
sg23
F1.0
sg24
F1.0
sg25
F1.0
sg26
F1.0
ssg27
(dp214
g9
I15
sg10
I19
sg21
I0
sg22
I5
sg23
I2
sg24
I6
sg25
I3
sg26
I1
ssa(dp215
g7
(dp216
g9
I13
sg10
I14
ssg11
S'src.0.(1,2,3).4.dst'
p217
sg13
I816490
sg14
(dp218
g18
I99999999
ssg19
(dp219
g9
F1.0
sg10
F1.0
sg21
F1.0
sg22
F1.0
sg23
F1.0
sg24
F1.0
sg26
F1.0
ssg27
(dp220
g9
I13
sg10
I14
sg21
I5
sg22
I1
sg23
I2
sg24
I0
sg26
I4
ssa(dp221
g7
(dp222
g9
I7
sg10
I14
ssg11
S'src.0.(1,2,3).dst'
p223
sg13
I874658
sg14
(dp224
g18
I99999999
ssg19
(dp225
g9
F1.0
sg10
F1.0
sg21
F1.0
sg22
F1.0
sg23
F1.0
sg24
F1.0
ssg27
(dp226
g9
I7
sg10
I14
sg21
I0
sg22
I5
sg23
I4
sg24
I6
ssa(dp227
g7
(dp228
g9
I16
sg10
I17
ssg11
S'src.0.(1,2).dst'
p229
sg13
I894974
sg14
(dp230
g18
I99999999
ssg19
(dp231
g21
F1.0
sg9
F1.0
sg10
F1.0
sg24
F1.0
sg22
F1.0
ssg27
(dp232
g21
I5
sg9
I16
sg10
I17
sg24
I2
sg22
I1
ssa(dp233
g7
(dp234
g9
I5
sg10
I15
ssg11
S'src.0.(1,2,3).dst'
p235
sg13
I7797991
sg14
(dp236
g18
I99999999
ssg19
(dp237
g9
F1.0
sg10
F1.0
sg21
F1.0
sg22
F1.0
sg23
F1.0
sg24
F1.0
ssg27
(dp238
g9
I5
sg10
I15
sg21
I6
sg22
I5
sg23
I4
sg24
I1
ssa(dp239
g7
(dp240
g9
I9
sg10
I15
ssg11
S'src.0.(1,2,3).dst'
p241
sg13
I6121331
sg14
(dp242
g18
I99999999
ssg19
(dp243
g9
F1.0
sg10
F1.0
sg21
F1.0
sg22
F1.0
sg23
F1.0
sg24
F1.0
ssg27
(dp244
g9
I9
sg10
I15
sg21
I5
sg22
I4
sg23
I3
sg24
I6
ssa(dp245
g7
(dp246
g9
I11
sg10
I15
ssg11
S'src.0.(1,2,3).dst'
p247
sg13
I7905003
sg14
(dp248
g18
I99999999
ssg19
(dp249
g9
F1.0
sg10
F1.0
sg21
F1.0
sg22
F1.0
sg23
F1.0
sg24
F1.0
ssg27
(dp250
g9
I11
sg10
I15
sg21
I5
sg22
I2
sg23
I4
sg24
I1
ssa(dp251
g7
(dp252
g9
I6
sg10
I11
ssg11
S'src.0.(1,2,3).4.5.dst'
p253
sg13
I4666308
sg14
(dp254
g18
I99999999
ssg19
(dp255
g9
F1.0
sg10
F1.0
sg21
F1.0
sg22
F1.0
sg23
F1.0
sg24
F1.0
sg25
F1.0
sg26
F1.0
ssg27
(dp256
g9
I6
sg10
I11
sg21
I3
sg22
I5
sg23
I6
sg24
I2
sg25
I4
sg26
I0
ssa(dp257
g7
(dp258
g9
I10
sg10
I16
ssg11
S'src.0.(1,2,3).4.5.dst'
p259
sg13
I1059196
sg14
(dp260
g18
I99999999
ssg19
(dp261
g9
F1.0
sg10
F1.0
sg21
F1.0
sg22
F1.0
sg23
F1.0
sg24
F1.0
sg25
F1.0
sg26
F1.0
ssg27
(dp262
g9
I10
sg10
I16
sg21
I6
sg22
I1
sg23
I0
sg24
I3
sg25
I2
sg26
I4
ssa(dp263
g7
(dp264
g9
I14
sg10
I19
ssg11
S'src.0.(1,2).dst'
p265
sg13
I4449206
sg14
(dp266
g18
I99999999
ssg19
(dp267
g21
F1.0
sg9
F1.0
sg10
F1.0
sg24
F1.0
sg22
F1.0
ssg27
(dp268
g21
I0
sg9
I14
sg10
I19
sg24
I2
sg22
I5
ssa(dp269
g7
(dp270
g9
I13
sg10
I15
ssg11
S'src.0.(1,2).dst'
p271
sg13
I1617533
sg14
(dp272
g18
I99999999
ssg19
(dp273
g21
F1.0
sg9
F1.0
sg10
F1.0
sg24
F1.0
sg22
F1.0
ssg27
(dp274
g21
I2
sg9
I13
sg10
I15
sg24
I4
sg22
I5
ssa(dp275
g7
(dp276
g9
I6
sg10
I13
ssg11
S'src.0.(1,2,3).4.5.dst'
p277
sg13
I1631169
sg14
(dp278
g18
I99999999
ssg19
(dp279
g9
F1.0
sg10
F1.0
sg21
F1.0
sg22
F1.0
sg23
F1.0
sg24
F1.0
sg25
F1.0
sg26
F1.0
ssg27
(dp280
g9
I6
sg10
I13
sg21
I4
sg22
I5
sg23
I2
sg24
I6
sg25
I1
sg26
I3
ssa(dp281
g7
(dp282
g9
I10
sg10
I15
ssg11
S'src.0.(1,2,3).4.dst'
p283
sg13
I6394862
sg14
(dp284
g18
I99999999
ssg19
(dp285
g9
F1.0
sg10
F1.0
sg21
F1.0
sg22
F1.0
sg23
F1.0
sg24
F1.0
sg26
F1.0
ssg27
(dp286
g9
I10
sg10
I15
sg21
I1
sg22
I3
sg23
I4
sg24
I6
sg26
I2
ssa(dp287
g7
(dp288
g9
I11
sg10
I19
ssg11
S'src.0.(1,2,3).4.dst'
p289
sg13
I1530665
sg14
(dp290
g18
I99999999
ssg19
(dp291
g9
F1.0
sg10
F1.0
sg21
F1.0
sg22
F1.0
sg23
F1.0
sg24
F1.0
sg26
F1.0
ssg27
(dp292
g9
I11
sg10
I19
sg21
I3
sg22
I2
sg23
I4
sg24
I5
sg26
I6
ssa(dp293
g7
(dp294
g9
I4
sg10
I6
ssg11
S'src.0.(1,2,3).dst'
p295
sg13
I1509810
sg14
(dp296
g18
I99999999
ssg19
(dp297
g9
F1.0
sg10
F1.0
sg21
F1.0
sg22
F1.0
sg23
F1.0
sg24
F1.0
ssg27
(dp298
g9
I4
sg10
I6
sg21
I1
sg22
I4
sg23
I6
sg24
I3
ssa(dp299
g7
(dp300
g9
I10
sg10
I12
ssg11
S'src.0.(1,2).dst'
p301
sg13
I163305567
sg14
(dp302
g18
I99999999
ssg19
(dp303
g21
F1.0
sg9
F1.0
sg10
F1.0
sg24
F1.0
sg22
F1.0
ssg27
(dp304
g21
I5
sg9
I10
sg10
I12
sg24
I1
sg22
I4
ssa(dp305
g7
(dp306
g9
I11
sg10
I20
ssg11
S'src.0.(1,2,3).dst'
p307
sg13
I1203371
sg14
(dp308
g18
I99999999
ssg19
(dp309
g9
F1.0
sg10
F1.0
sg21
F1.0
sg22
F1.0
sg23
F1.0
sg24
F1.0
ssg27
(dp310
g9
I11
sg10
I20
sg21
I0
sg22
I6
sg23
I1
sg24
I2
ssa(dp311
g7
(dp312
g9
I6
sg10
I13
ssg11
S'src.0.(1,2,3).4.dst'
p313
sg13
I10313775
sg14
(dp314
g18
I99999999
ssg19
(dp315
g9
F1.0
sg10
F1.0
sg21
F1.0
sg22
F1.0
sg23
F1.0
sg24
F1.0
sg26
F1.0
ssg27
(dp316
g9
I6
sg10
I13
sg21
I0
sg22
I4
sg23
I1
sg24
I5
sg26
I2
ssa(dp317
g7
(dp318
g9
I7
sg10
I15
ssg11
S'src.0.(1,2).dst'
p319
sg13
I1304164
sg14
(dp320
g18
I99999999
ssg19
(dp321
g21
F1.0
sg9
F1.0
sg10
F1.0
sg24
F1.0
sg22
F1.0
ssg27
(dp322
g21
I4
sg9
I7
sg10
I15
sg24
I6
sg22
I1
ssa(dp323
g7
(dp324
g9
I14
sg10
I20
ssg11
S'src.0.(1,2).dst'
p325
sg13
I4595428
sg14
(dp326
g18
I99999999
ssg19
(dp327
g21
F1.0
sg9
F1.0
sg10
F1.0
sg24
F1.0
sg22
F1.0
ssg27
(dp328
g21
I6
sg9
I14
sg10
I20
sg24
I5
sg22
I1
ssa(dp329
g7
(dp330
g9
I10
sg10
I12
ssg11
S'src.0.(1,2).dst'
p331
sg13
I163305567
sg14
(dp332
g18
I99999999
ssg19
(dp333
g21
F1.0
sg9
F1.0
sg10
F1.0
sg24
F1.0
sg22
F1.0
ssg27
(dp334
g21
I5
sg9
I10
sg10
I12
sg24
I1
sg22
I4
ssa(dp335
g7
(dp336
g9
I11
sg10
I16
ssg11
S'src.0.(1,2).dst'
p337
sg13
I3595169
sg14
(dp338
g18
I99999999
ssg19
(dp339
g21
F1.0
sg9
F1.0
sg10
F1.0
sg24
F1.0
sg22
F1.0
ssg27
(dp340
g21
I1
sg9
I11
sg10
I16
sg24
I3
sg22
I2
ssa(dp341
g7
(dp342
g9
I14
sg10
I15
ssg11
S'src.0.(1,2,3).dst'
p343
sg13
I3942434
sg14
(dp344
g18
I99999999
ssg19
(dp345
g9
F1.0
sg10
F1.0
sg21
F1.0
sg22
F1.0
sg23
F1.0
sg24
F1.0
ssg27
(dp346
g9
I14
sg10
I15
sg21
I6
sg22
I1
sg23
I3
sg24
I2
ssa(dp347
g7
(dp348
g9
I11
sg10
I16
ssg11
S'src.0.(1,2,3).dst'
p349
sg13
I1719433
sg14
(dp350
g18
I99999999
ssg19
(dp351
g9
F1.0
sg10
F1.0
sg21
F1.0
sg22
F1.0
sg23
F1.0
sg24
F1.0
ssg27
(dp352
g9
I11
sg10
I16
sg21
I0
sg22
I2
sg23
I1
sg24
I3
ssa(dp353
g7
(dp354
g9
I4
sg10
I15
ssg11
S'src.0.(1,2).dst'
p355
sg13
I13810050
sg14
(dp356
g18
I99999999
ssg19
(dp357
g21
F1.0
sg9
F1.0
sg10
F1.0
sg24
F1.0
sg22
F1.0
ssg27
(dp358
g21
I2
sg9
I4
sg10
I15
sg24
I0
sg22
I6
ssa(dp359
g7
(dp360
g9
I4
sg10
I15
ssg11
S'src.0.(1,2).dst'
p361
sg13
I6299030
sg14
(dp362
g18
I99999999
ssg19
(dp363
g21
F1.0
sg9
F1.0
sg10
F1.0
sg24
F1.0
sg22
F1.0
ssg27
(dp364
g21
I4
sg9
I4
sg10
I15
sg24
I0
sg22
I3
ssa(dp365
g7
(dp366
g9
I6
sg10
I8
ssg11
S'src.0.(1,2).dst'
p367
sg13
I15583120
sg14
(dp368
g18
I99999999
ssg19
(dp369
g21
F1.0
sg9
F1.0
sg10
F1.0
sg24
F1.0
sg22
F1.0
ssg27
(dp370
g21
I6
sg9
I6
sg10
I8
sg24
I5
sg22
I2
ssa(dp371
g7
(dp372
g9
I11
sg10
I14
ssg11
S'src.0.(1,2).dst'
p373
sg13
I1284694
sg14
(dp374
g18
I99999999
ssg19
(dp375
g21
F1.0
sg9
F1.0
sg10
F1.0
sg24
F1.0
sg22
F1.0
ssg27
(dp376
g21
I1
sg9
I11
sg10
I14
sg24
I4
sg22
I0
ssa(dp377
g7
(dp378
g9
I6
sg10
I7
ssg11
S'src.0.(1,2,3).4.dst'
p379
sg13
I51468610
sg14
(dp380
g18
I99999999
ssg19
(dp381
g9
F1.0
sg10
F1.0
sg21
F1.0
sg22
F1.0
sg23
F1.0
sg24
F1.0
sg26
F1.0
ssg27
(dp382
g9
I6
sg10
I7
sg21
I4
sg22
I2
sg23
I0
sg24
I5
sg26
I6
ssa(dp383
g7
(dp384
g9
I11
sg10
I15
ssg11
S'src.0.(1,2,3).dst'
p385
sg13
I7970469
sg14
(dp386
g18
I99999999
ssg19
(dp387
g9
F1.0
sg10
F1.0
sg21
F1.0
sg22
F1.0
sg23
F1.0
sg24
F1.0
ssg27
(dp388
g9
I11
sg10
I15
sg21
I4
sg22
I0
sg23
I5
sg24
I3
ssa(dp389
g7
(dp390
g9
I6
sg10
I19
ssg11
S'src.0.(1,2,3).4.dst'
p391
sg13
I9067239
sg14
(dp392
g18
I99999999
ssg19
(dp393
g9
F1.0
sg10
F1.0
sg21
F1.0
sg22
F1.0
sg23
F1.0
sg24
F1.0
sg26
F1.0
ssg27
(dp394
g9
I6
sg10
I19
sg21
I5
sg22
I2
sg23
I6
sg24
I1
sg26
I4
ssa(dp395
g7
(dp396
g9
I1
sg10
I7
ssg11
S'src.0.(1,2,3).4.dst'
p397
sg13
I1328482
sg14
(dp398
g18
I99999999
ssg19
(dp399
g9
F1.0
sg10
F1.0
sg21
F1.0
sg22
F1.0
sg23
F1.0
sg24
F1.0
sg26
F1.0
ssg27
(dp400
g9
I1
sg10
I7
sg21
I1
sg22
I2
sg23
I5
sg24
I3
sg26
I6
ssa(dp401
g7
(dp402
g9
I6
sg10
I8
ssg11
S'src.0.(1,2).dst'
p403
sg13
I7384842
sg14
(dp404
g18
I99999999
ssg19
(dp405
g21
F1.0
sg9
F1.0
sg10
F1.0
sg24
F1.0
sg22
F1.0
ssg27
(dp406
g21
I1
sg9
I6
sg10
I8
sg24
I4
sg22
I6
ssa(dp407
g7
(dp408
g9
I1
sg10
I15
ssg11
S'src.0.(1,2).dst'
p409
sg13
I2316338
sg14
(dp410
g18
I99999999
ssg19
(dp411
g21
F1.0
sg9
F1.0
sg10
F1.0
sg24
F1.0
sg22
F1.0
ssg27
(dp412
g21
I3
sg9
I1
sg10
I15
sg24
I2
sg22
I6
ssa(dp413
g7
(dp414
g9
I10
sg10
I16
ssg11
S'src.0.(1,2,3).dst'
p415
sg13
I1040154
sg14
(dp416
g18
I99999999
ssg19
(dp417
g9
F1.0
sg10
F1.0
sg21
F1.0
sg22
F1.0
sg23
F1.0
sg24
F1.0
ssg27
(dp418
g9
I10
sg10
I16
sg21
I4
sg22
I5
sg23
I1
sg24
I2
ssa(dp419
g7
(dp420
g9
I6
sg10
I8
ssg11
S'src.0.(1,2).dst'
p421
sg13
I7384842
sg14
(dp422
g18
I99999999
ssg19
(dp423
g21
F1.0
sg9
F1.0
sg10
F1.0
sg24
F1.0
sg22
F1.0
ssg27
(dp424
g21
I1
sg9
I6
sg10
I8
sg24
I4
sg22
I6
ssa(dp425
g7
(dp426
g9
I11
sg10
I13
ssg11
S'src.0.(1,2).dst'
p427
sg13
I810817
sg14
(dp428
g18
I99999999
ssg19
(dp429
g21
F1.0
sg9
F1.0
sg10
F1.0
sg24
F1.0
sg22
F1.0
ssg27
(dp430
g21
I1
sg9
I11
sg10
I13
sg24
I5
sg22
I4
ssa(dp431
g7
(dp432
g9
I10
sg10
I20
ssg11
S'src.0.(1,2,3).4.dst'
p433
sg13
I1762123
sg14
(dp434
g18
I99999999
ssg19
(dp435
g9
F1.0
sg10
F1.0
sg21
F1.0
sg22
F1.0
sg23
F1.0
sg24
F1.0
sg26
F1.0
ssg27
(dp436
g9
I10
sg10
I20
sg21
I5
sg22
I2
sg23
I0
sg24
I6
sg26
I4
ssa(dp437
g7
(dp438
g9
I1
sg10
I7
ssg11
S'src.0.(1,2,3).4.dst'
p439
sg13
I3765065
sg14
(dp440
g18
I99999999
ssg19
(dp441
g9
F1.0
sg10
F1.0
sg21
F1.0
sg22
F1.0
sg23
F1.0
sg24
F1.0
sg26
F1.0
ssg27
(dp442
g9
I1
sg10
I7
sg21
I5
sg22
I3
sg23
I2
sg24
I4
sg26
I0
ssa(dp443
g7
(dp444
g9
I5
sg10
I15
ssg11
S'src.0.(1,2,3).dst'
p445
sg13
I7797991
sg14
(dp446
g18
I99999999
ssg19
(dp447
g9
F1.0
sg10
F1.0
sg21
F1.0
sg22
F1.0
sg23
F1.0
sg24
F1.0
ssg27
(dp448
g9
I5
sg10
I15
sg21
I6
sg22
I5
sg23
I4
sg24
I1
ssa(dp449
g7
(dp450
g9
I9
sg10
I15
ssg11
S'src.0.(1,2).dst'
p451
sg13
I7670213
sg14
(dp452
g18
I99999999
ssg19
(dp453
g21
F1.0
sg9
F1.0
sg10
F1.0
sg24
F1.0
sg22
F1.0
ssg27
(dp454
g21
I5
sg9
I9
sg10
I15
sg24
I4
sg22
I6
ssa(dp455
g7
(dp456
g9
I12
sg10
I16
ssg11
S'src.0.(1,2,3).4.5.dst'
p457
sg13
I5067296
sg14
(dp458
g18
I99999999
ssg19
(dp459
g9
F1.0
sg10
F1.0
sg21
F1.0
sg22
F1.0
sg23
F1.0
sg24
F1.0
sg25
F1.0
sg26
F1.0
ssg27
(dp460
g9
I12
sg10
I16
sg21
I0
sg22
I2
sg23
I1
sg24
I3
sg25
I6
sg26
I4
ssa(dp461
g7
(dp462
g9
I15
sg10
I17
ssg11
S'src.0.(1,2).dst'
p463
sg13
I7709755
sg14
(dp464
g18
I99999999
ssg19
(dp465
g21
F1.0
sg9
F1.0
sg10
F1.0
sg24
F1.0
sg22
F1.0
ssg27
(dp466
g21
I5
sg9
I15
sg10
I17
sg24
I2
sg22
I3
ssa(dp467
g7
(dp468
g9
I9
sg10
I15
ssg11
S'src.0.(1,2,3).4.5.dst'
p469
sg13
I4486788
sg14
(dp470
g18
I99999999
ssg19
(dp471
g9
F1.0
sg10
F1.0
sg21
F1.0
sg22
F1.0
sg23
F1.0
sg24
F1.0
sg25
F1.0
sg26
F1.0
ssg27
(dp472
g9
I9
sg10
I15
sg21
I6
sg22
I4
sg23
I0
sg24
I5
sg25
I3
sg26
I2
ssa(dp473
g7
(dp474
g9
I7
sg10
I19
ssg11
S'src.0.(1,2).dst'
p475
sg13
I6428818
sg14
(dp476
g18
I99999999
ssg19
(dp477
g21
F1.0
sg9
F1.0
sg10
F1.0
sg24
F1.0
sg22
F1.0
ssg27
(dp478
g21
I5
sg9
I7
sg10
I19
sg24
I1
sg22
I4
ssa(dp479
g7
(dp480
g9
I1
sg10
I7
ssg11
S'src.0.(1,2,3).4.dst'
p481
sg13
I3108988
sg14
(dp482
g18
I99999999
ssg19
(dp483
g9
F1.0
sg10
F1.0
sg21
F1.0
sg22
F1.0
sg23
F1.0
sg24
F1.0
sg26
F1.0
ssg27
(dp484
g9
I1
sg10
I7
sg21
I2
sg22
I5
sg23
I0
sg24
I1
sg26
I6
ssa(dp485
g7
(dp486
g9
I11
sg10
I20
ssg11
S'src.0.(1,2,3).4.5.dst'
p487
sg13
I1170541
sg14
(dp488
g18
I99999999
ssg19
(dp489
g9
F1.0
sg10
F1.0
sg21
F1.0
sg22
F1.0
sg23
F1.0
sg24
F1.0
sg25
F1.0
sg26
F1.0
ssg27
(dp490
g9
I11
sg10
I20
sg21
I4
sg22
I0
sg23
I2
sg24
I1
sg25
I6
sg26
I5
ssa(dp491
g7
(dp492
g9
I6
sg10
I16
ssg11
S'src.0.(1,2,3).4.dst'
p493
sg13
I7454182
sg14
(dp494
g18
I99999999
ssg19
(dp495
g9
F1.0
sg10
F1.0
sg21
F1.0
sg22
F1.0
sg23
F1.0
sg24
F1.0
sg26
F1.0
ssg27
(dp496
g9
I6
sg10
I16
sg21
I6
sg22
I2
sg23
I5
sg24
I4
sg26
I0
ssa(dp497
g7
(dp498
g9
I14
sg10
I15
ssg11
S'src.0.(1,2,3).4.5.dst'
p499
sg13
I7563211
sg14
(dp500
g18
I99999999
ssg19
(dp501
g9
F1.0
sg10
F1.0
sg21
F1.0
sg22
F1.0
sg23
F1.0
sg24
F1.0
sg25
F1.0
sg26
F1.0
ssg27
(dp502
g9
I14
sg10
I15
sg21
I6
sg22
I3
sg23
I2
sg24
I0
sg25
I1
sg26
I4
ssa(dp503
g7
(dp504
g9
I14
sg10
I20
ssg11
S'src.0.(1,2,3).4.dst'
p505
sg13
I3499136
sg14
(dp506
g18
I99999999
ssg19
(dp507
g9
F1.0
sg10
F1.0
sg21
F1.0
sg22
F1.0
sg23
F1.0
sg24
F1.0
sg26
F1.0
ssg27
(dp508
g9
I14
sg10
I20
sg21
I2
sg22
I1
sg23
I4
sg24
I3
sg26
I6
ssa(dp509
g7
(dp510
g9
I8
sg10
I15
ssg11
S'src.0.(1,2,3).4.dst'
p511
sg13
I3562769
sg14
(dp512
g18
I99999999
ssg19
(dp513
g9
F1.0
sg10
F1.0
sg21
F1.0
sg22
F1.0
sg23
F1.0
sg24
F1.0
sg26
F1.0
ssg27
(dp514
g9
I8
sg10
I15
sg21
I4
sg22
I3
sg23
I6
sg24
I0
sg26
I5
ssa(dp515
g7
(dp516
g9
I9
sg10
I16
ssg11
S'src.0.(1,2,3).dst'
p517
sg13
I998622
sg14
(dp518
g18
I99999999
ssg19
(dp519
g9
F1.0
sg10
F1.0
sg21
F1.0
sg22
F1.0
sg23
F1.0
sg24
F1.0
ssg27
(dp520
g9
I9
sg10
I16
sg21
I4
sg22
I6
sg23
I2
sg24
I0
ssa(dp521
g7
(dp522
g9
I1
sg10
I4
ssg11
S'src.0.(1,2,3).4.dst'
p523
sg13
I7124608
sg14
(dp524
g18
I99999999
ssg19
(dp525
g9
F1.0
sg10
F1.0
sg21
F1.0
sg22
F1.0
sg23
F1.0
sg24
F1.0
sg26
F1.0
ssg27
(dp526
g9
I1
sg10
I4
sg21
I3
sg22
I1
sg23
I5
sg24
I0
sg26
I6
ssa(dp527
g7
(dp528
g9
I3
sg10
I14
ssg11
S'src.0.(1,2,3).dst'
p529
sg13
I1067859
sg14
(dp530
g18
I99999999
ssg19
(dp531
g9
F1.0
sg10
F1.0
sg21
F1.0
sg22
F1.0
sg23
F1.0
sg24
F1.0
ssg27
(dp532
g9
I3
sg10
I14
sg21
I3
sg22
I2
sg23
I4
sg24
I1
ssa(dp533
g7
(dp534
g9
I11
sg10
I13
ssg11
S'src.0.(1,2,3).4.5.dst'
p535
sg13
I1613326
sg14
(dp536
g18
I99999999
ssg19
(dp537
g9
F1.0
sg10
F1.0
sg21
F1.0
sg22
F1.0
sg23
F1.0
sg24
F1.0
sg25
F1.0
sg26
F1.0
ssg27
(dp538
g9
I11
sg10
I13
sg21
I2
sg22
I6
sg23
I5
sg24
I1
sg25
I3
sg26
I0
ssa(dp539
g7
(dp540
g9
I10
sg10
I20
ssg11
S'src.0.(1,2,3).4.dst'
p541
sg13
I4609189
sg14
(dp542
g18
I99999999
ssg19
(dp543
g9
F1.0
sg10
F1.0
sg21
F1.0
sg22
F1.0
sg23
F1.0
sg24
F1.0
sg26
F1.0
ssg27
(dp544
g9
I10
sg10
I20
sg21
I3
sg22
I6
sg23
I2
sg24
I4
sg26
I5
ssa(dp545
g7
(dp546
g9
I10
sg10
I12
ssg11
S'src.0.(1,2).dst'
p547
sg13
I163305567
sg14
(dp548
g18
I99999999
ssg19
(dp549
g21
F1.0
sg9
F1.0
sg10
F1.0
sg24
F1.0
sg22
F1.0
ssg27
(dp550
g21
I5
sg9
I10
sg10
I12
sg24
I1
sg22
I4
ssa(dp551
g7
(dp552
g9
I12
sg10
I14
ssg11
S'src.0.(1,2,3).4.5.dst'
p553
sg13
I1440375
sg14
(dp554
g18
I99999999
ssg19
(dp555
g9
F1.0
sg10
F1.0
sg21
F1.0
sg22
F1.0
sg23
F1.0
sg24
F1.0
sg25
F1.0
sg26
F1.0
ssg27
(dp556
g9
I12
sg10
I14
sg21
I5
sg22
I0
sg23
I4
sg24
I1
sg25
I3
sg26
I2
ssa(dp557
g7
(dp558
g9
I11
sg10
I17
ssg11
S'src.0.(1,2,3).4.dst'
p559
sg13
I1240944
sg14
(dp560
g18
I99999999
ssg19
(dp561
g9
F1.0
sg10
F1.0
sg21
F1.0
sg22
F1.0
sg23
F1.0
sg24
F1.0
sg26
F1.0
ssg27
(dp562
g9
I11
sg10
I17
sg21
I2
sg22
I3
sg23
I0
sg24
I4
sg26
I1
ssa(dp563
g7
(dp564
g9
I10
sg10
I17
ssg11
S'src.0.(1,2).dst'
p565
sg13
I2302052
sg14
(dp566
g18
I99999999
ssg19
(dp567
g21
F1.0
sg9
F1.0
sg10
F1.0
sg24
F1.0
sg22
F1.0
ssg27
(dp568
g21
I6
sg9
I10
sg10
I17
sg24
I2
sg22
I1
ssa(dp569
g7
(dp570
g9
I6
sg10
I11
ssg11
S'src.0.(1,2,3).4.dst'
p571
sg13
I3767919
sg14
(dp572
g18
I99999999
ssg19
(dp573
g9
F1.0
sg10
F1.0
sg21
F1.0
sg22
F1.0
sg23
F1.0
sg24
F1.0
sg26
F1.0
ssg27
(dp574
g9
I6
sg10
I11
sg21
I2
sg22
I3
sg23
I4
sg24
I5
sg26
I6
ssa(dp575
g7
(dp576
g9
I7
sg10
I19
ssg11
S'src.0.(1,2,3).dst'
p577
sg13
I3284884
sg14
(dp578
g18
I99999999
ssg19
(dp579
g9
F1.0
sg10
F1.0
sg21
F1.0
sg22
F1.0
sg23
F1.0
sg24
F1.0
ssg27
(dp580
g9
I7
sg10
I19
sg21
I0
sg22
I4
sg23
I6
sg24
I5
ssa(dp581
g7
(dp582
g9
I11
sg10
I12
ssg11
S'src.0.(1,2,3).4.dst'
p583
sg13
I2885196
sg14
(dp584
g18
I99999999
ssg19
(dp585
g9
F1.0
sg10
F1.0
sg21
F1.0
sg22
F1.0
sg23
F1.0
sg24
F1.0
sg26
F1.0
ssg27
(dp586
g9
I11
sg10
I12
sg21
I5
sg22
I4
sg23
I0
sg24
I2
sg26
I1
ssa(dp587
g7
(dp588
g9
I10
sg10
I15
ssg11
S'src.0.(1,2,3).4.5.dst'
p589
sg13
I2938013
sg14
(dp590
g18
I99999999
ssg19
(dp591
g9
F1.0
sg10
F1.0
sg21
F1.0
sg22
F1.0
sg23
F1.0
sg24
F1.0
sg25
F1.0
sg26
F1.0
ssg27
(dp592
g9
I10
sg10
I15
sg21
I1
sg22
I6
sg23
I2
sg24
I4
sg25
I0
sg26
I5
ssa(dp593
g7
(dp594
g9
I14
sg10
I15
ssg11
S'src.0.(1,2,3).dst'
p595
sg13
I6863430
sg14
(dp596
g18
I99999999
ssg19
(dp597
g9
F1.0
sg10
F1.0
sg21
F1.0
sg22
F1.0
sg23
F1.0
sg24
F1.0
ssg27
(dp598
g9
I14
sg10
I15
sg21
I3
sg22
I2
sg23
I5
sg24
I0
ssa(dp599
g7
(dp600
g9
I10
sg10
I20
ssg11
S'src.0.(1,2,3).dst'
p601
sg13
I1422849
sg14
(dp602
g18
I99999999
ssg19
(dp603
g9
F1.0
sg10
F1.0
sg21
F1.0
sg22
F1.0
sg23
F1.0
sg24
F1.0
ssg27
(dp604
g9
I10
sg10
I20
sg21
I3
sg22
I2
sg23
I6
sg24
I5
ssa(dp605
g7
(dp606
g9
I10
sg10
I15
ssg11
S'src.0.(1,2).dst'
p607
sg13
I2321921
sg14
(dp608
g18
I99999999
ssg19
(dp609
g21
F1.0
sg9
F1.0
sg10
F1.0
sg24
F1.0
sg22
F1.0
ssg27
(dp610
g21
I4
sg9
I10
sg10
I15
sg24
I2
sg22
I0
ssa(dp611
g7
(dp612
g9
I12
sg10
I16
ssg11
S'src.0.(1,2).dst'
p613
sg13
I1490118
sg14
(dp614
g18
I99999999
ssg19
(dp615
g21
F1.0
sg9
F1.0
sg10
F1.0
sg24
F1.0
sg22
F1.0
ssg27
(dp616
g21
I0
sg9
I12
sg10
I16
sg24
I2
sg22
I5
ssa(dp617
g7
(dp618
g9
I11
sg10
I14
ssg11
S'src.0.(1,2).dst'
p619
sg13
I1284694
sg14
(dp620
g18
I99999999
ssg19
(dp621
g21
F1.0
sg9
F1.0
sg10
F1.0
sg24
F1.0
sg22
F1.0
ssg27
(dp622
g21
I1
sg9
I11
sg10
I14
sg24
I4
sg22
I0
ssa(dp623
g7
(dp624
g9
I10
sg10
I11
ssg11
S'src.0.(1,2).dst'
p625
sg13
I977985
sg14
(dp626
g18
I99999999
ssg19
(dp627
g21
F1.0
sg9
F1.0
sg10
F1.0
sg24
F1.0
sg22
F1.0
ssg27
(dp628
g21
I1
sg9
I10
sg10
I11
sg24
I6
sg22
I2
ssa(dp629
g7
(dp630
g9
I3
sg10
I15
ssg11
S'src.0.(1,2,3).4.dst'
p631
sg13
I1919857
sg14
(dp632
g18
I99999999
ssg19
(dp633
g9
F1.0
sg10
F1.0
sg21
F1.0
sg22
F1.0
sg23
F1.0
sg24
F1.0
sg26
F1.0
ssg27
(dp634
g9
I3
sg10
I15
sg21
I4
sg22
I1
sg23
I3
sg24
I6
sg26
I5
ssa(dp635
g7
(dp636
g9
I10
sg10
I20
ssg11
S'src.0.(1,2,3).4.5.dst'
p637
sg13
I3113753
sg14
(dp638
g18
I99999999
ssg19
(dp639
g9
F1.0
sg10
F1.0
sg21
F1.0
sg22
F1.0
sg23
F1.0
sg24
F1.0
sg25
F1.0
sg26
F1.0
ssg27
(dp640
g9
I10
sg10
I20
sg21
I3
sg22
I5
sg23
I2
sg24
I6
sg25
I0
sg26
I4
ssa(dp641
g7
(dp642
g9
I12
sg10
I15
ssg11
S'src.0.(1,2).dst'
p643
sg13
I4799916
sg14
(dp644
g18
I99999999
ssg19
(dp645
g21
F1.0
sg9
F1.0
sg10
F1.0
sg24
F1.0
sg22
F1.0
ssg27
(dp646
g21
I5
sg9
I12
sg10
I15
sg24
I6
sg22
I2
ssa(dp647
g7
(dp648
g9
I4
sg10
I19
ssg11
S'src.0.(1,2,3).4.dst'
p649
sg13
I1023652
sg14
(dp650
g18
I99999999
ssg19
(dp651
g9
F1.0
sg10
F1.0
sg21
F1.0
sg22
F1.0
sg23
F1.0
sg24
F1.0
sg26
F1.0
ssg27
(dp652
g9
I4
sg10
I19
sg21
I0
sg22
I2
sg23
I3
sg24
I6
sg26
I4
ssa(dp653
g7
(dp654
g9
I6
sg10
I8
ssg11
S'src.0.(1,2,3).dst'
p655
sg13
I11133208
sg14
(dp656
g18
I99999999
ssg19
(dp657
g9
F1.0
sg10
F1.0
sg21
F1.0
sg22
F1.0
sg23
F1.0
sg24
F1.0
ssg27
(dp658
g9
I6
sg10
I8
sg21
I6
sg22
I0
sg23
I1
sg24
I3
ssa(dp659
g7
(dp660
g9
I7
sg10
I15
ssg11
S'src.0.(1,2).dst'
p661
sg13
I1304164
sg14
(dp662
g18
I99999999
ssg19
(dp663
g21
F1.0
sg9
F1.0
sg10
F1.0
sg24
F1.0
sg22
F1.0
ssg27
(dp664
g21
I4
sg9
I7
sg10
I15
sg24
I6
sg22
I1
ssa(dp665
g7
(dp666
g9
I1
sg10
I15
ssg11
S'src.0.(1,2,3).4.5.dst'
p667
sg13
I11769774
sg14
(dp668
g18
I99999999
ssg19
(dp669
g9
F1.0
sg10
F1.0
sg21
F1.0
sg22
F1.0
sg23
F1.0
sg24
F1.0
sg25
F1.0
sg26
F1.0
ssg27
(dp670
g9
I1
sg10
I15
sg21
I2
sg22
I6
sg23
I0
sg24
I5
sg25
I3
sg26
I1
ssa(dp671
g7
(dp672
g9
I10
sg10
I15
ssg11
S'src.0.(1,2,3).dst'
p673
sg13
I3387190
sg14
(dp674
g18
I99999999
ssg19
(dp675
g9
F1.0
sg10
F1.0
sg21
F1.0
sg22
F1.0
sg23
F1.0
sg24
F1.0
ssg27
(dp676
g9
I10
sg10
I15
sg21
I2
sg22
I6
sg23
I3
sg24
I5
ssa(dp677
g7
(dp678
g9
I14
sg10
I19
ssg11
S'src.0.(1,2).dst'
p679
sg13
I4665192
sg14
(dp680
g18
I99999999
ssg19
(dp681
g21
F1.0
sg9
F1.0
sg10
F1.0
sg24
F1.0
sg22
F1.0
ssg27
(dp682
g21
I3
sg9
I14
sg10
I19
sg24
I6
sg22
I4
ssa(dp683
g7
(dp684
g9
I15
sg10
I19
ssg11
S'src.0.(1,2,3).4.5.dst'
p685
sg13
I14206809
sg14
(dp686
g18
I99999999
ssg19
(dp687
g9
F1.0
sg10
F1.0
sg21
F1.0
sg22
F1.0
sg23
F1.0
sg24
F1.0
sg25
F1.0
sg26
F1.0
ssg27
(dp688
g9
I15
sg10
I19
sg21
I0
sg22
I3
sg23
I5
sg24
I6
sg25
I2
sg26
I1
ssa(dp689
g7
(dp690
g9
I11
sg10
I20
ssg11
S'src.0.(1,2,3).4.5.dst'
p691
sg13
I1130854
sg14
(dp692
g18
I99999999
ssg19
(dp693
g9
F1.0
sg10
F1.0
sg21
F1.0
sg22
F1.0
sg23
F1.0
sg24
F1.0
sg25
F1.0
sg26
F1.0
ssg27
(dp694
g9
I11
sg10
I20
sg21
I3
sg22
I5
sg23
I1
sg24
I2
sg25
I4
sg26
I0
ssa(dp695
g7
(dp696
g9
I10
sg10
I17
ssg11
S'src.0.(1,2).dst'
p697
sg13
I2302052
sg14
(dp698
g18
I99999999
ssg19
(dp699
g21
F1.0
sg9
F1.0
sg10
F1.0
sg24
F1.0
sg22
F1.0
ssg27
(dp700
g21
I6
sg9
I10
sg10
I17
sg24
I2
sg22
I1
ssa(dp701
g7
(dp702
g9
I15
sg10
I16
ssg11
S'src.0.(1,2,3).dst'
p703
sg13
I1498346
sg14
(dp704
g18
I99999999
ssg19
(dp705
g9
F1.0
sg10
F1.0
sg21
F1.0
sg22
F1.0
sg23
F1.0
sg24
F1.0
ssg27
(dp706
g9
I15
sg10
I16
sg21
I1
sg22
I5
sg23
I6
sg24
I0
ssa(dp707
g7
(dp708
g9
I15
sg10
I16
ssg11
S'src.0.(1,2,3).4.dst'
p709
sg13
I9028917
sg14
(dp710
g18
I99999999
ssg19
(dp711
g9
F1.0
sg10
F1.0
sg21
F1.0
sg22
F1.0
sg23
F1.0
sg24
F1.0
sg26
F1.0
ssg27
(dp712
g9
I15
sg10
I16
sg21
I4
sg22
I2
sg23
I6
sg24
I0
sg26
I1
ssa(dp713
g7
(dp714
g9
I10
sg10
I12
ssg11
S'src.0.(1,2).dst'
p715
sg13
I163305567
sg14
(dp716
g18
I99999999
ssg19
(dp717
g21
F1.0
sg9
F1.0
sg10
F1.0
sg24
F1.0
sg22
F1.0
ssg27
(dp718
g21
I5
sg9
I10
sg10
I12
sg24
I1
sg22
I4
ssa(dp719
g7
(dp720
g9
I1
sg10
I15
ssg11
S'src.0.(1,2,3).4.5.dst'
p721
sg13
I11769774
sg14
(dp722
g18
I99999999
ssg19
(dp723
g9
F1.0
sg10
F1.0
sg21
F1.0
sg22
F1.0
sg23
F1.0
sg24
F1.0
sg25
F1.0
sg26
F1.0
ssg27
(dp724
g9
I1
sg10
I15
sg21
I2
sg22
I6
sg23
I0
sg24
I5
sg25
I3
sg26
I1
ssa(dp725
g7
(dp726
g9
I1
sg10
I15
ssg11
S'src.0.(1,2,3).4.5.dst'
p727
sg13
I4179459
sg14
(dp728
g18
I99999999
ssg19
(dp729
g9
F1.0
sg10
F1.0
sg21
F1.0
sg22
F1.0
sg23
F1.0
sg24
F1.0
sg25
F1.0
sg26
F1.0
ssg27
(dp730
g9
I1
sg10
I15
sg21
I0
sg22
I2
sg23
I3
sg24
I5
sg25
I4
sg26
I1
ssa(dp731
g7
(dp732
g9
I6
sg10
I20
ssg11
S'src.0.(1,2,3).4.5.dst'
p733
sg13
I3446988
sg14
(dp734
g18
I99999999
ssg19
(dp735
g9
F1.0
sg10
F1.0
sg21
F1.0
sg22
F1.0
sg23
F1.0
sg24
F1.0
sg25
F1.0
sg26
F1.0
ssg27
(dp736
g9
I6
sg10
I20
sg21
I5
sg22
I1
sg23
I2
sg24
I0
sg25
I4
sg26
I3
ssa(dp737
g7
(dp738
g9
I13
sg10
I15
ssg11
S'src.0.(1,2,3).dst'
p739
sg13
I5019062
sg14
(dp740
g18
I99999999
ssg19
(dp741
g9
F1.0
sg10
F1.0
sg21
F1.0
sg22
F1.0
sg23
F1.0
sg24
F1.0
ssg27
(dp742
g9
I13
sg10
I15
sg21
I0
sg22
I3
sg23
I4
sg24
I5
ssa(dp743
g7
(dp744
g9
I12
sg10
I14
ssg11
S'src.0.(1,2,3).dst'
p745
sg13
I1045590
sg14
(dp746
g18
I99999999
ssg19
(dp747
g9
F1.0
sg10
F1.0
sg21
F1.0
sg22
F1.0
sg23
F1.0
sg24
F1.0
ssg27
(dp748
g9
I12
sg10
I14
sg21
I4
sg22
I6
sg23
I3
sg24
I0
ssa(dp749
g7
(dp750
g9
I15
sg10
I20
ssg11
S'src.0.(1,2,3).4.5.dst'
p751
sg13
I11730820
sg14
(dp752
g18
I99999999
ssg19
(dp753
g9
F1.0
sg10
F1.0
sg21
F1.0
sg22
F1.0
sg23
F1.0
sg24
F1.0
sg25
F1.0
sg26
F1.0
ssg27
(dp754
g9
I15
sg10
I20
sg21
I3
sg22
I5
sg23
I2
sg24
I6
sg25
I4
sg26
I1
ssa(dp755
g7
(dp756
g9
I6
sg10
I20
ssg11
S'src.0.(1,2,3).dst'
p757
sg13
I7036303
sg14
(dp758
g18
I99999999
ssg19
(dp759
g9
F1.0
sg10
F1.0
sg21
F1.0
sg22
F1.0
sg23
F1.0
sg24
F1.0
ssg27
(dp760
g9
I6
sg10
I20
sg21
I3
sg22
I4
sg23
I1
sg24
I5
ssa(dp761
g7
(dp762
g9
I1
sg10
I15
ssg11
S'src.0.(1,2).dst'
p763
sg13
I2316338
sg14
(dp764
g18
I99999999
ssg19
(dp765
g21
F1.0
sg9
F1.0
sg10
F1.0
sg24
F1.0
sg22
F1.0
ssg27
(dp766
g21
I3
sg9
I1
sg10
I15
sg24
I2
sg22
I6
ssa(dp767
g7
(dp768
g9
I7
sg10
I19
ssg11
S'src.0.(1,2).dst'
p769
sg13
I2334233
sg14
(dp770
g18
I99999999
ssg19
(dp771
g21
F1.0
sg9
F1.0
sg10
F1.0
sg24
F1.0
sg22
F1.0
ssg27
(dp772
g21
I4
sg9
I7
sg10
I19
sg24
I5
sg22
I6
ssa(dp773
g7
(dp774
g9
I10
sg10
I16
ssg11
S'src.0.(1,2,3).4.5.dst'
p775
sg13
I1059196
sg14
(dp776
g18
I99999999
ssg19
(dp777
g9
F1.0
sg10
F1.0
sg21
F1.0
sg22
F1.0
sg23
F1.0
sg24
F1.0
sg25
F1.0
sg26
F1.0
ssg27
(dp778
g9
I10
sg10
I16
sg21
I6
sg22
I1
sg23
I0
sg24
I3
sg25
I2
sg26
I4
ssa(dp779
g7
(dp780
g9
I13
sg10
I15
ssg11
S'src.0.(1,2).dst'
p781
sg13
I1617533
sg14
(dp782
g18
I99999999
ssg19
(dp783
g21
F1.0
sg9
F1.0
sg10
F1.0
sg24
F1.0
sg22
F1.0
ssg27
(dp784
g21
I2
sg9
I13
sg10
I15
sg24
I4
sg22
I5
ssa(dp785
g7
(dp786
g9
I10
sg10
I14
ssg11
S'src.0.(1,2,3).4.dst'
p787
sg13
I979170
sg14
(dp788
g18
I99999999
ssg19
(dp789
g9
F1.0
sg10
F1.0
sg21
F1.0
sg22
F1.0
sg23
F1.0
sg24
F1.0
sg26
F1.0
ssg27
(dp790
g9
I10
sg10
I14
sg21
I5
sg22
I0
sg23
I2
sg24
I1
sg26
I3
ssa(dp791
g7
(dp792
g9
I15
sg10
I16
ssg11
S'src.0.(1,2).dst'
p793
sg13
I7536966
sg14
(dp794
g18
I99999999
ssg19
(dp795
g21
F1.0
sg9
F1.0
sg10
F1.0
sg24
F1.0
sg22
F1.0
ssg27
(dp796
g21
I4
sg9
I15
sg10
I16
sg24
I6
sg22
I3
ssa(dp797
g7
(dp798
g9
I6
sg10
I16
ssg11
S'src.0.(1,2).dst'
p799
sg13
I878901
sg14
(dp800
g18
I99999999
ssg19
(dp801
g21
F1.0
sg9
F1.0
sg10
F1.0
sg24
F1.0
sg22
F1.0
ssg27
(dp802
g21
I6
sg9
I6
sg10
I16
sg24
I3
sg22
I0
ssa(dp803
g7
(dp804
g9
I11
sg10
I15
ssg11
S'src.0.(1,2,3).4.5.dst'
p805
sg13
I5154285
sg14
(dp806
g18
I99999999
ssg19
(dp807
g9
F1.0
sg10
F1.0
sg21
F1.0
sg22
F1.0
sg23
F1.0
sg24
F1.0
sg25
F1.0
sg26
F1.0
ssg27
(dp808
g9
I11
sg10
I15
sg21
I4
sg22
I5
sg23
I1
sg24
I3
sg25
I2
sg26
I6
ssa(dp809
g7
(dp810
g9
I9
sg10
I15
ssg11
S'src.0.(1,2,3).4.5.dst'
p811
sg13
I5353702
sg14
(dp812
g18
I99999999
ssg19
(dp813
g9
F1.0
sg10
F1.0
sg21
F1.0
sg22
F1.0
sg23
F1.0
sg24
F1.0
sg25
F1.0
sg26
F1.0
ssg27
(dp814
g9
I9
sg10
I15
sg21
I1
sg22
I0
sg23
I2
sg24
I4
sg25
I3
sg26
I6
ssa(dp815
g7
(dp816
g9
I10
sg10
I15
ssg11
S'src.0.(1,2,3).4.dst'
p817
sg13
I166469809
sg14
(dp818
g18
I99999999
ssg19
(dp819
g9
F1.0
sg10
F1.0
sg21
F1.0
sg22
F1.0
sg23
F1.0
sg24
F1.0
sg26
F1.0
ssg27
(dp820
g9
I10
sg10
I15
sg21
I3
sg22
I2
sg23
I1
sg24
I6
sg26
I4
ssa(dp821
g7
(dp822
g9
I4
sg10
I15
ssg11
S'src.0.(1,2).dst'
p823
sg13
I6299030
sg14
(dp824
g18
I99999999
ssg19
(dp825
g21
F1.0
sg9
F1.0
sg10
F1.0
sg24
F1.0
sg22
F1.0
ssg27
(dp826
g21
I4
sg9
I4
sg10
I15
sg24
I0
sg22
I3
ssa(dp827
g7
(dp828
g9
I4
sg10
I15
ssg11
S'src.0.(1,2,3).dst'
p829
sg13
I5877264
sg14
(dp830
g18
I99999999
ssg19
(dp831
g9
F1.0
sg10
F1.0
sg21
F1.0
sg22
F1.0
sg23
F1.0
sg24
F1.0
ssg27
(dp832
g9
I4
sg10
I15
sg21
I5
sg22
I0
sg23
I2
sg24
I3
ssa(dp833
g7
(dp834
g9
I4
sg10
I11
ssg11
S'src.0.(1,2,3).4.dst'
p835
sg13
I815196
sg14
(dp836
g18
I99999999
ssg19
(dp837
g9
F1.0
sg10
F1.0
sg21
F1.0
sg22
F1.0
sg23
F1.0
sg24
F1.0
sg26
F1.0
ssg27
(dp838
g9
I4
sg10
I11
sg21
I3
sg22
I1
sg23
I6
sg24
I2
sg26
I4
ssa(dp839
g7
(dp840
g9
I12
sg10
I14
ssg11
S'src.0.(1,2,3).4.dst'
p841
sg13
I958995
sg14
(dp842
g18
I99999999
ssg19
(dp843
g9
F1.0
sg10
F1.0
sg21
F1.0
sg22
F1.0
sg23
F1.0
sg24
F1.0
sg26
F1.0
ssg27
(dp844
g9
I12
sg10
I14
sg21
I5
sg22
I0
sg23
I4
sg24
I2
sg26
I1
ssa(dp845
g7
(dp846
g9
I14
sg10
I15
ssg11
S'src.0.(1,2,3).dst'
p847
sg13
I4503350
sg14
(dp848
g18
I99999999
ssg19
(dp849
g9
F1.0
sg10
F1.0
sg21
F1.0
sg22
F1.0
sg23
F1.0
sg24
F1.0
ssg27
(dp850
g9
I14
sg10
I15
sg21
I1
sg22
I3
sg23
I6
sg24
I0
ssa(dp851
g7
(dp852
g9
I7
sg10
I14
ssg11
S'src.0.(1,2,3).dst'
p853
sg13
I874658
sg14
(dp854
g18
I99999999
ssg19
(dp855
g9
F1.0
sg10
F1.0
sg21
F1.0
sg22
F1.0
sg23
F1.0
sg24
F1.0
ssg27
(dp856
g9
I7
sg10
I14
sg21
I0
sg22
I5
sg23
I4
sg24
I6
ssa(dp857
g7
(dp858
g9
I1
sg10
I7
ssg11
S'src.0.(1,2,3).4.dst'
p859
sg13
I3388428
sg14
(dp860
g18
I99999999
ssg19
(dp861
g9
F1.0
sg10
F1.0
sg21
F1.0
sg22
F1.0
sg23
F1.0
sg24
F1.0
sg26
F1.0
ssg27
(dp862
g9
I1
sg10
I7
sg21
I5
sg22
I1
sg23
I3
sg24
I2
sg26
I0
ssa(dp863
g7
(dp864
g9
I14
sg10
I16
ssg11
S'src.0.(1,2).dst'
p865
sg13
I1631183
sg14
(dp866
g18
I99999999
ssg19
(dp867
g21
F1.0
sg9
F1.0
sg10
F1.0
sg24
F1.0
sg22
F1.0
ssg27
(dp868
g21
I2
sg9
I14
sg10
I16
sg24
I4
sg22
I3
ssa(dp869
g7
(dp870
g9
I11
sg10
I15
ssg11
S'src.0.(1,2).dst'
p871
sg13
I4328803
sg14
(dp872
g18
I99999999
ssg19
(dp873
g21
F1.0
sg9
F1.0
sg10
F1.0
sg24
F1.0
sg22
F1.0
ssg27
(dp874
g21
I1
sg9
I11
sg10
I15
sg24
I0
sg22
I6
ssa(dp875
g7
(dp876
g9
I10
sg10
I20
ssg11
S'src.0.(1,2,3).4.5.dst'
p877
sg13
I3113753
sg14
(dp878
g18
I99999999
ssg19
(dp879
g9
F1.0
sg10
F1.0
sg21
F1.0
sg22
F1.0
sg23
F1.0
sg24
F1.0
sg25
F1.0
sg26
F1.0
ssg27
(dp880
g9
I10
sg10
I20
sg21
I3
sg22
I5
sg23
I2
sg24
I6
sg25
I0
sg26
I4
ssa(dp881
g7
(dp882
g9
I12
sg10
I15
ssg11
S'src.0.(1,2,3).4.5.dst'
p883
sg13
I995858
sg14
(dp884
g18
I99999999
ssg19
(dp885
g9
F1.0
sg10
F1.0
sg21
F1.0
sg22
F1.0
sg23
F1.0
sg24
F1.0
sg25
F1.0
sg26
F1.0
ssg27
(dp886
g9
I12
sg10
I15
sg21
I2
sg22
I5
sg23
I4
sg24
I3
sg25
I1
sg26
I6
ssa(dp887
g7
(dp888
g9
I14
sg10
I17
ssg11
S'src.0.(1,2,3).dst'
p889
sg13
I4920487
sg14
(dp890
g18
I99999999
ssg19
(dp891
g9
F1.0
sg10
F1.0
sg21
F1.0
sg22
F1.0
sg23
F1.0
sg24
F1.0
ssg27
(dp892
g9
I14
sg10
I17
sg21
I4
sg22
I2
sg23
I3
sg24
I6
ssa(dp893
g7
(dp894
g9
I13
sg10
I17
ssg11
S'src.0.(1,2,3).dst'
p895
sg13
I10990050
sg14
(dp896
g18
I99999999
ssg19
(dp897
g9
F1.0
sg10
F1.0
sg21
F1.0
sg22
F1.0
sg23
F1.0
sg24
F1.0
ssg27
(dp898
g9
I13
sg10
I17
sg21
I2
sg22
I6
sg23
I4
sg24
I0
ssa(dp899
g7
(dp900
g9
I14
sg10
I15
ssg11
S'src.0.(1,2,3).dst'
p901
sg13
I3720795
sg14
(dp902
g18
I99999999
ssg19
(dp903
g9
F1.0
sg10
F1.0
sg21
F1.0
sg22
F1.0
sg23
F1.0
sg24
F1.0
ssg27
(dp904
g9
I14
sg10
I15
sg21
I0
sg22
I5
sg23
I6
sg24
I4
ssa(dp905
g7
(dp906
g9
I13
sg10
I15
ssg11
S'src.0.(1,2,3).dst'
p907
sg13
I5019062
sg14
(dp908
g18
I99999999
ssg19
(dp909
g9
F1.0
sg10
F1.0
sg21
F1.0
sg22
F1.0
sg23
F1.0
sg24
F1.0
ssg27
(dp910
g9
I13
sg10
I15
sg21
I0
sg22
I3
sg23
I4
sg24
I5
ssa(dp911
g7
(dp912
g9
I14
sg10
I19
ssg11
S'src.0.(1,2).dst'
p913
sg13
I2558701
sg14
(dp914
g18
I99999999
ssg19
(dp915
g21
F1.0
sg9
F1.0
sg10
F1.0
sg24
F1.0
sg22
F1.0
ssg27
(dp916
g21
I0
sg9
I14
sg10
I19
sg24
I4
sg22
I1
ssa(dp917
g7
(dp918
g9
I15
sg10
I20
ssg11
S'src.0.(1,2,3).4.dst'
p919
sg13
I11827988
sg14
(dp920
g18
I99999999
ssg19
(dp921
g9
F1.0
sg10
F1.0
sg21
F1.0
sg22
F1.0
sg23
F1.0
sg24
F1.0
sg26
F1.0
ssg27
(dp922
g9
I15
sg10
I20
sg21
I5
sg22
I2
sg23
I4
sg24
I3
sg26
I0
ssa(dp923
g7
(dp924
g9
I15
sg10
I20
ssg11
S'src.0.(1,2,3).4.5.dst'
p925
sg13
I14910933
sg14
(dp926
g18
I99999999
ssg19
(dp927
g9
F1.0
sg10
F1.0
sg21
F1.0
sg22
F1.0
sg23
F1.0
sg24
F1.0
sg25
F1.0
sg26
F1.0
ssg27
(dp928
g9
I15
sg10
I20
sg21
I5
sg22
I1
sg23
I6
sg24
I2
sg25
I4
sg26
I3
ssa(dp929
g7
(dp930
g9
I12
sg10
I14
ssg11
S'src.0.(1,2,3).4.dst'
p931
sg13
I958995
sg14
(dp932
g18
I99999999
ssg19
(dp933
g9
F1.0
sg10
F1.0
sg21
F1.0
sg22
F1.0
sg23
F1.0
sg24
F1.0
sg26
F1.0
ssg27
(dp934
g9
I12
sg10
I14
sg21
I5
sg22
I0
sg23
I4
sg24
I2
sg26
I1
ssa(dp935
g7
(dp936
g9
I6
sg10
I16
ssg11
S'src.0.(1,2,3).dst'
p937
sg13
I4003747
sg14
(dp938
g18
I99999999
ssg19
(dp939
g9
F1.0
sg10
F1.0
sg21
F1.0
sg22
F1.0
sg23
F1.0
sg24
F1.0
ssg27
(dp940
g9
I6
sg10
I16
sg21
I1
sg22
I5
sg23
I2
sg24
I3
ssa(dp941
g7
(dp942
g9
I13
sg10
I15
ssg11
S'src.0.(1,2,3).4.dst'
p943
sg13
I3382071
sg14
(dp944
g18
I99999999
ssg19
(dp945
g9
F1.0
sg10
F1.0
sg21
F1.0
sg22
F1.0
sg23
F1.0
sg24
F1.0
sg26
F1.0
ssg27
(dp946
g9
I13
sg10
I15
sg21
I3
sg22
I1
sg23
I2
sg24
I0
sg26
I4
ssa(dp947
g7
(dp948
g9
I1
sg10
I15
ssg11
S'src.0.(1,2,3).4.dst'
p949
sg13
I1248824
sg14
(dp950
g18
I99999999
ssg19
(dp951
g9
F1.0
sg10
F1.0
sg21
F1.0
sg22
F1.0
sg23
F1.0
sg24
F1.0
sg26
F1.0
ssg27
(dp952
g9
I1
sg10
I15
sg21
I4
sg22
I2
sg23
I5
sg24
I6
sg26
I1
ssa(dp953
g7
(dp954
g9
I5
sg10
I15
ssg11
S'src.0.(1,2,3).dst'
p955
sg13
I3446220
sg14
(dp956
g18
I99999999
ssg19
(dp957
g9
F1.0
sg10
F1.0
sg21
F1.0
sg22
F1.0
sg23
F1.0
sg24
F1.0
ssg27
(dp958
g9
I5
sg10
I15
sg21
I4
sg22
I3
sg23
I2
sg24
I6
ssa(dp959
g7
(dp960
g9
I11
sg10
I19
ssg11
S'src.0.(1,2,3).4.dst'
p961
sg13
I1530665
sg14
(dp962
g18
I99999999
ssg19
(dp963
g9
F1.0
sg10
F1.0
sg21
F1.0
sg22
F1.0
sg23
F1.0
sg24
F1.0
sg26
F1.0
ssg27
(dp964
g9
I11
sg10
I19
sg21
I3
sg22
I2
sg23
I4
sg24
I5
sg26
I6
ssa(dp965
g7
(dp966
g9
I11
sg10
I15
ssg11
S'src.0.(1,2).dst'
p967
sg13
I4328803
sg14
(dp968
g18
I99999999
ssg19
(dp969
g21
F1.0
sg9
F1.0
sg10
F1.0
sg24
F1.0
sg22
F1.0
ssg27
(dp970
g21
I1
sg9
I11
sg10
I15
sg24
I0
sg22
I6
ssa(dp971
g7
(dp972
g9
I1
sg10
I7
ssg11
S'src.0.(1,2,3).4.5.dst'
p973
sg13
I4285602
sg14
(dp974
g18
I99999999
ssg19
(dp975
g9
F1.0
sg10
F1.0
sg21
F1.0
sg22
F1.0
sg23
F1.0
sg24
F1.0
sg25
F1.0
sg26
F1.0
ssg27
(dp976
g9
I1
sg10
I7
sg21
I3
sg22
I0
sg23
I4
sg24
I2
sg25
I6
sg26
I5
ssa(dp977
g7
(dp978
g9
I6
sg10
I13
ssg11
S'src.0.(1,2,3).4.5.dst'
p979
sg13
I4694434
sg14
(dp980
g18
I99999999
ssg19
(dp981
g9
F1.0
sg10
F1.0
sg21
F1.0
sg22
F1.0
sg23
F1.0
sg24
F1.0
sg25
F1.0
sg26
F1.0
ssg27
(dp982
g9
I6
sg10
I13
sg21
I3
sg22
I4
sg23
I6
sg24
I0
sg25
I1
sg26
I2
ssa(dp983
g7
(dp984
g9
I11
sg10
I15
ssg11
S'src.0.(1,2,3).dst'
p985
sg13
I5297367
sg14
(dp986
g18
I99999999
ssg19
(dp987
g9
F1.0
sg10
F1.0
sg21
F1.0
sg22
F1.0
sg23
F1.0
sg24
F1.0
ssg27
(dp988
g9
I11
sg10
I15
sg21
I4
sg22
I6
sg23
I5
sg24
I0
ssa(dp989
g7
(dp990
g9
I11
sg10
I19
ssg11
S'src.0.(1,2).dst'
p991
sg13
I1245643
sg14
(dp992
g18
I99999999
ssg19
(dp993
g21
F1.0
sg9
F1.0
sg10
F1.0
sg24
F1.0
sg22
F1.0
ssg27
(dp994
g21
I1
sg9
I11
sg10
I19
sg24
I6
sg22
I5
ssa(dp995
g7
(dp996
g9
I14
sg10
I16
ssg11
S'src.0.(1,2).dst'
p997
sg13
I3644755
sg14
(dp998
g18
I99999999
ssg19
(dp999
g21
F1.0
sg9
F1.0
sg10
F1.0
sg24
F1.0
sg22
F1.0
ssg27
(dp1000
g21
I3
sg9
I14
sg10
I16
sg24
I1
sg22
I4
ssa(dp1001
g7
(dp1002
g9
I6
sg10
I7
ssg11
S'src.0.(1,2,3).4.dst'
p1003
sg13
I51468610
sg14
(dp1004
g18
I99999999
ssg19
(dp1005
g9
F1.0
sg10
F1.0
sg21
F1.0
sg22
F1.0
sg23
F1.0
sg24
F1.0
sg26
F1.0
ssg27
(dp1006
g9
I6
sg10
I7
sg21
I4
sg22
I2
sg23
I0
sg24
I5
sg26
I6
ssa(dp1007
g7
(dp1008
g9
I4
sg10
I6
ssg11
S'src.0.(1,2,3).dst'
p1009
sg13
I1509810
sg14
(dp1010
g18
I99999999
ssg19
(dp1011
g9
F1.0
sg10
F1.0
sg21
F1.0
sg22
F1.0
sg23
F1.0
sg24
F1.0
ssg27
(dp1012
g9
I4
sg10
I6
sg21
I1
sg22
I4
sg23
I6
sg24
I3
ssa(dp1013
g7
(dp1014
g9
I10
sg10
I17
ssg11
S'src.0.(1,2).dst'
p1015
sg13
I17022243
sg14
(dp1016
g18
I99999999
ssg19
(dp1017
g21
F1.0
sg9
F1.0
sg10
F1.0
sg24
F1.0
sg22
F1.0
ssg27
(dp1018
g21
I1
sg9
I10
sg10
I17
sg24
I5
sg22
I4
ssa(dp1019
g7
(dp1020
g9
I10
sg10
I20
ssg11
S'src.0.(1,2,3).dst'
p1021
sg13
I2513649
sg14
(dp1022
g18
I99999999
ssg19
(dp1023
g9
F1.0
sg10
F1.0
sg21
F1.0
sg22
F1.0
sg23
F1.0
sg24
F1.0
ssg27
(dp1024
g9
I10
sg10
I20
sg21
I0
sg22
I2
sg23
I3
sg24
I1
ssa(dp1025
g7
(dp1026
g9
I11
sg10
I20
ssg11
S'src.0.(1,2,3).dst'
p1027
sg13
I1203371
sg14
(dp1028
g18
I99999999
ssg19
(dp1029
g9
F1.0
sg10
F1.0
sg21
F1.0
sg22
F1.0
sg23
F1.0
sg24
F1.0
ssg27
(dp1030
g9
I11
sg10
I20
sg21
I0
sg22
I6
sg23
I1
sg24
I2
ssa(dp1031
g7
(dp1032
g9
I14
sg10
I16
ssg11
S'src.0.(1,2,3).4.dst'
p1033
sg13
I904626
sg14
(dp1034
g18
I99999999
ssg19
(dp1035
g9
F1.0
sg10
F1.0
sg21
F1.0
sg22
F1.0
sg23
F1.0
sg24
F1.0
sg26
F1.0
ssg27
(dp1036
g9
I14
sg10
I16
sg21
I0
sg22
I3
sg23
I5
sg24
I2
sg26
I1
ssa(dp1037
g7
(dp1038
g9
I11
sg10
I14
ssg11
S'src.0.(1,2).dst'
p1039
sg13
I1419307
sg14
(dp1040
g18
I99999999
ssg19
(dp1041
g21
F1.0
sg9
F1.0
sg10
F1.0
sg24
F1.0
sg22
F1.0
ssg27
(dp1042
g21
I6
sg9
I11
sg10
I14
sg24
I3
sg22
I4
ssa(dp1043
g7
(dp1044
g9
I15
sg10
I19
ssg11
S'src.0.(1,2).dst'
p1045
sg13
I6181203
sg14
(dp1046
g18
I99999999
ssg19
(dp1047
g21
F1.0
sg9
F1.0
sg10
F1.0
sg24
F1.0
sg22
F1.0
ssg27
(dp1048
g21
I2
sg9
I15
sg10
I19
sg24
I3
sg22
I1
ssa(dp1049
g7
(dp1050
g9
I11
sg10
I16
ssg11
S'src.0.(1,2,3).4.dst'
p1051
sg13
I4095855
sg14
(dp1052
g18
I99999999
ssg19
(dp1053
g9
F1.0
sg10
F1.0
sg21
F1.0
sg22
F1.0
sg23
F1.0
sg24
F1.0
sg26
F1.0
ssg27
(dp1054
g9
I11
sg10
I16
sg21
I0
sg22
I2
sg23
I6
sg24
I1
sg26
I5
ssa(dp1055
g7
(dp1056
g9
I8
sg10
I15
ssg11
S'src.0.(1,2,3).4.5.dst'
p1057
sg13
I7031232
sg14
(dp1058
g18
I99999999
ssg19
(dp1059
g9
F1.0
sg10
F1.0
sg21
F1.0
sg22
F1.0
sg23
F1.0
sg24
F1.0
sg25
F1.0
sg26
F1.0
ssg27
(dp1060
g9
I8
sg10
I15
sg21
I3
sg22
I4
sg23
I6
sg24
I2
sg25
I5
sg26
I1
ssa(dp1061
g7
(dp1062
g9
I1
sg10
I15
ssg11
S'src.0.(1,2,3).4.dst'
p1063
sg13
I1248824
sg14
(dp1064
g18
I99999999
ssg19
(dp1065
g9
F1.0
sg10
F1.0
sg21
F1.0
sg22
F1.0
sg23
F1.0
sg24
F1.0
sg26
F1.0
ssg27
(dp1066
g9
I1
sg10
I15
sg21
I4
sg22
I2
sg23
I5
sg24
I6
sg26
I1
ssa(dp1067
g7
(dp1068
g9
I10
sg10
I16
ssg11
S'src.0.(1,2,3).dst'
p1069
sg13
I1040154
sg14
(dp1070
g18
I99999999
ssg19
(dp1071
g9
F1.0
sg10
F1.0
sg21
F1.0
sg22
F1.0
sg23
F1.0
sg24
F1.0
ssg27
(dp1072
g9
I10
sg10
I16
sg21
I4
sg22
I5
sg23
I1
sg24
I2
ssa(dp1073
g7
(dp1074
g9
I10
sg10
I15
ssg11
S'src.0.(1,2,3).dst'
p1075
sg13
I3387190
sg14
(dp1076
g18
I99999999
ssg19
(dp1077
g9
F1.0
sg10
F1.0
sg21
F1.0
sg22
F1.0
sg23
F1.0
sg24
F1.0
ssg27
(dp1078
g9
I10
sg10
I15
sg21
I2
sg22
I6
sg23
I3
sg24
I5
ssa(dp1079
g7
(dp1080
g9
I13
sg10
I15
ssg11
S'src.0.(1,2,3).dst'
p1081
sg13
I13756304
sg14
(dp1082
g18
I99999999
ssg19
(dp1083
g9
F1.0
sg10
F1.0
sg21
F1.0
sg22
F1.0
sg23
F1.0
sg24
F1.0
ssg27
(dp1084
g9
I13
sg10
I15
sg21
I6
sg22
I4
sg23
I0
sg24
I5
ssa(dp1085
g7
(dp1086
g9
I6
sg10
I16
ssg11
S'src.0.(1,2).dst'
p1087
sg13
I21022180
sg14
(dp1088
g18
I99999999
ssg19
(dp1089
g21
F1.0
sg9
F1.0
sg10
F1.0
sg24
F1.0
sg22
F1.0
ssg27
(dp1090
g21
I5
sg9
I6
sg10
I16
sg24
I1
sg22
I6
ssa(dp1091
g7
(dp1092
g9
I15
sg10
I17
ssg11
S'src.0.(1,2,3).4.dst'
p1093
sg13
I2996760
sg14
(dp1094
g18
I99999999
ssg19
(dp1095
g9
F1.0
sg10
F1.0
sg21
F1.0
sg22
F1.0
sg23
F1.0
sg24
F1.0
sg26
F1.0
ssg27
(dp1096
g9
I15
sg10
I17
sg21
I1
sg22
I3
sg23
I2
sg24
I5
sg26
I6
ssa(dp1097
g7
(dp1098
g9
I3
sg10
I15
ssg11
S'src.0.(1,2,3).4.dst'
p1099
sg13
I1976858
sg14
(dp1100
g18
I99999999
ssg19
(dp1101
g9
F1.0
sg10
F1.0
sg21
F1.0
sg22
F1.0
sg23
F1.0
sg24
F1.0
sg26
F1.0
ssg27
(dp1102
g9
I3
sg10
I15
sg21
I0
sg22
I3
sg23
I5
sg24
I6
sg26
I4
ssa(dp1103
g7
(dp1104
g9
I7
sg10
I14
ssg11
S'src.0.(1,2,3).dst'
p1105
sg13
I874658
sg14
(dp1106
g18
I99999999
ssg19
(dp1107
g9
F1.0
sg10
F1.0
sg21
F1.0
sg22
F1.0
sg23
F1.0
sg24
F1.0
ssg27
(dp1108
g9
I7
sg10
I14
sg21
I0
sg22
I5
sg23
I4
sg24
I6
ssa(dp1109
g7
(dp1110
g9
I15
sg10
I20
ssg11
S'src.0.(1,2,3).dst'
p1111
sg13
I18742960
sg14
(dp1112
g18
I99999999
ssg19
(dp1113
g9
F1.0
sg10
F1.0
sg21
F1.0
sg22
F1.0
sg23
F1.0
sg24
F1.0
ssg27
(dp1114
g9
I15
sg10
I20
sg21
I3
sg22
I5
sg23
I1
sg24
I2
ssa(dp1115
g7
(dp1116
g9
I13
sg10
I14
ssg11
S'src.0.(1,2,3).4.dst'
p1117
sg13
I816490
sg14
(dp1118
g18
I99999999
ssg19
(dp1119
g9
F1.0
sg10
F1.0
sg21
F1.0
sg22
F1.0
sg23
F1.0
sg24
F1.0
sg26
F1.0
ssg27
(dp1120
g9
I13
sg10
I14
sg21
I5
sg22
I1
sg23
I2
sg24
I0
sg26
I4
ssa(dp1121
g7
(dp1122
g9
I8
sg10
I15
ssg11
S'src.0.(1,2,3).4.5.dst'
p1123
sg13
I7031232
sg14
(dp1124
g18
I99999999
ssg19
(dp1125
g9
F1.0
sg10
F1.0
sg21
F1.0
sg22
F1.0
sg23
F1.0
sg24
F1.0
sg25
F1.0
sg26
F1.0
ssg27
(dp1126
g9
I8
sg10
I15
sg21
I3
sg22
I4
sg23
I6
sg24
I2
sg25
I5
sg26
I1
ssa(dp1127
g7
(dp1128
g9
I6
sg10
I8
ssg11
S'src.0.(1,2,3).4.5.dst'
p1129
sg13
I12102480
sg14
(dp1130
g18
I99999999
ssg19
(dp1131
g9
F1.0
sg10
F1.0
sg21
F1.0
sg22
F1.0
sg23
F1.0
sg24
F1.0
sg25
F1.0
sg26
F1.0
ssg27
(dp1132
g9
I6
sg10
I8
sg21
I5
sg22
I2
sg23
I6
sg24
I3
sg25
I4
sg26
I1
ssa(dp1133
g7
(dp1134
g9
I15
sg10
I19
ssg11
S'src.0.(1,2).dst'
p1135
sg13
I10081440
sg14
(dp1136
g18
I99999999
ssg19
(dp1137
g21
F1.0
sg9
F1.0
sg10
F1.0
sg24
F1.0
sg22
F1.0
ssg27
(dp1138
g21
I5
sg9
I15
sg10
I19
sg24
I4
sg22
I0
ssa(dp1139
g7
(dp1140
g9
I12
sg10
I14
ssg11
S'src.0.(1,2,3).4.dst'
p1141
sg13
I958995
sg14
(dp1142
g18
I99999999
ssg19
(dp1143
g9
F1.0
sg10
F1.0
sg21
F1.0
sg22
F1.0
sg23
F1.0
sg24
F1.0
sg26
F1.0
ssg27
(dp1144
g9
I12
sg10
I14
sg21
I5
sg22
I0
sg23
I4
sg24
I2
sg26
I1
ssa(dp1145
g7
(dp1146
g9
I10
sg10
I17
ssg11
S'src.0.(1,2).dst'
p1147
sg13
I2302052
sg14
(dp1148
g18
I99999999
ssg19
(dp1149
g21
F1.0
sg9
F1.0
sg10
F1.0
sg24
F1.0
sg22
F1.0
ssg27
(dp1150
g21
I6
sg9
I10
sg10
I17
sg24
I2
sg22
I1
ssa(dp1151
g7
(dp1152
g9
I11
sg10
I16
ssg11
S'src.0.(1,2,3).4.5.dst'
p1153
sg13
I2483700
sg14
(dp1154
g18
I99999999
ssg19
(dp1155
g9
F1.0
sg10
F1.0
sg21
F1.0
sg22
F1.0
sg23
F1.0
sg24
F1.0
sg25
F1.0
sg26
F1.0
ssg27
(dp1156
g9
I11
sg10
I16
sg21
I5
sg22
I4
sg23
I6
sg24
I3
sg25
I2
sg26
I0
ssa(dp1157
g7
(dp1158
g9
I11
sg10
I19
ssg11
S'src.0.(1,2).dst'
p1159
sg13
I1115921
sg14
(dp1160
g18
I99999999
ssg19
(dp1161
g21
F1.0
sg9
F1.0
sg10
F1.0
sg24
F1.0
sg22
F1.0
ssg27
(dp1162
g21
I5
sg9
I11
sg10
I19
sg24
I6
sg22
I0
ssa(dp1163
g7
(dp1164
g9
I11
sg10
I19
ssg11
S'src.0.(1,2).dst'
p1165
sg13
I1115921
sg14
(dp1166
g18
I99999999
ssg19
(dp1167
g21
F1.0
sg9
F1.0
sg10
F1.0
sg24
F1.0
sg22
F1.0
ssg27
(dp1168
g21
I5
sg9
I11
sg10
I19
sg24
I6
sg22
I0
ssa(dp1169
g7
(dp1170
g9
I1
sg10
I15
ssg11
S'src.0.(1,2,3).dst'
p1171
sg13
I15536635
sg14
(dp1172
g18
I99999999
ssg19
(dp1173
g9
F1.0
sg10
F1.0
sg21
F1.0
sg22
F1.0
sg23
F1.0
sg24
F1.0
ssg27
(dp1174
g9
I1
sg10
I15
sg21
I4
sg22
I2
sg23
I1
sg24
I3
ssa(dp1175
g7
(dp1176
g9
I1
sg10
I15
ssg11
S'src.0.(1,2,3).4.5.dst'
p1177
sg13
I11769774
sg14
(dp1178
g18
I99999999
ssg19
(dp1179
g9
F1.0
sg10
F1.0
sg21
F1.0
sg22
F1.0
sg23
F1.0
sg24
F1.0
sg25
F1.0
sg26
F1.0
ssg27
(dp1180
g9
I1
sg10
I15
sg21
I2
sg22
I6
sg23
I0
sg24
I5
sg25
I3
sg26
I1
ssa(dp1181
g7
(dp1182
g9
I11
sg10
I19
ssg11
S'src.0.(1,2).dst'
p1183
sg13
I1115921
sg14
(dp1184
g18
I99999999
ssg19
(dp1185
g21
F1.0
sg9
F1.0
sg10
F1.0
sg24
F1.0
sg22
F1.0
ssg27
(dp1186
g21
I5
sg9
I11
sg10
I19
sg24
I6
sg22
I0
ssa(dp1187
g7
(dp1188
g9
I11
sg10
I16
ssg11
S'src.0.(1,2,3).4.dst'
p1189
sg13
I4095855
sg14
(dp1190
g18
I99999999
ssg19
(dp1191
g9
F1.0
sg10
F1.0
sg21
F1.0
sg22
F1.0
sg23
F1.0
sg24
F1.0
sg26
F1.0
ssg27
(dp1192
g9
I11
sg10
I16
sg21
I0
sg22
I2
sg23
I6
sg24
I1
sg26
I5
ssa(dp1193
g7
(dp1194
g9
I14
sg10
I19
ssg11
S'src.0.(1,2).dst'
p1195
sg13
I4449206
sg14
(dp1196
g18
I99999999
ssg19
(dp1197
g21
F1.0
sg9
F1.0
sg10
F1.0
sg24
F1.0
sg22
F1.0
ssg27
(dp1198
g21
I0
sg9
I14
sg10
I19
sg24
I2
sg22
I5
ssa(dp1199
g7
(dp1200
g9
I14
sg10
I15
ssg11
S'src.0.(1,2,3).4.5.dst'
p1201
sg13
I3500960
sg14
(dp1202
g18
I99999999
ssg19
(dp1203
g9
F1.0
sg10
F1.0
sg21
F1.0
sg22
F1.0
sg23
F1.0
sg24
F1.0
sg25
F1.0
sg26
F1.0
ssg27
(dp1204
g9
I14
sg10
I15
sg21
I6
sg22
I2
sg23
I4
sg24
I3
sg25
I1
sg26
I5
ssa(dp1205
g7
(dp1206
g9
I1
sg10
I15
ssg11
S'src.0.(1,2,3).4.5.dst'
p1207
sg13
I11769774
sg14
(dp1208
g18
I99999999
ssg19
(dp1209
g9
F1.0
sg10
F1.0
sg21
F1.0
sg22
F1.0
sg23
F1.0
sg24
F1.0
sg25
F1.0
sg26
F1.0
ssg27
(dp1210
g9
I1
sg10
I15
sg21
I2
sg22
I6
sg23
I0
sg24
I5
sg25
I3
sg26
I1
ssa(dp1211
g7
(dp1212
g9
I15
sg10
I19
ssg11
S'src.0.(1,2).dst'
p1213
sg13
I10081440
sg14
(dp1214
g18
I99999999
ssg19
(dp1215
g21
F1.0
sg9
F1.0
sg10
F1.0
sg24
F1.0
sg22
F1.0
ssg27
(dp1216
g21
I5
sg9
I15
sg10
I19
sg24
I4
sg22
I0
ssa(dp1217
g7
(dp1218
g9
I12
sg10
I15
ssg11
S'src.0.(1,2,3).dst'
p1219
sg13
I1060048
sg14
(dp1220
g18
I99999999
ssg19
(dp1221
g9
F1.0
sg10
F1.0
sg21
F1.0
sg22
F1.0
sg23
F1.0
sg24
F1.0
ssg27
(dp1222
g9
I12
sg10
I15
sg21
I6
sg22
I0
sg23
I4
sg24
I5
ssa(dp1223
g7
(dp1224
g9
I13
sg10
I15
ssg11
S'src.0.(1,2,3).4.dst'
p1225
sg13
I3382071
sg14
(dp1226
g18
I99999999
ssg19
(dp1227
g9
F1.0
sg10
F1.0
sg21
F1.0
sg22
F1.0
sg23
F1.0
sg24
F1.0
sg26
F1.0
ssg27
(dp1228
g9
I13
sg10
I15
sg21
I3
sg22
I1
sg23
I2
sg24
I0
sg26
I4
ssa(dp1229
g7
(dp1230
g9
I14
sg10
I20
ssg11
S'src.0.(1,2,3).4.dst'
p1231
sg13
I1180626
sg14
(dp1232
g18
I99999999
ssg19
(dp1233
g9
F1.0
sg10
F1.0
sg21
F1.0
sg22
F1.0
sg23
F1.0
sg24
F1.0
sg26
F1.0
ssg27
(dp1234
g9
I14
sg10
I20
sg21
I2
sg22
I1
sg23
I5
sg24
I3
sg26
I0
ssa(dp1235
g7
(dp1236
g9
I14
sg10
I20
ssg11
S'src.0.(1,2,3).4.dst'
p1237
sg13
I4747554
sg14
(dp1238
g18
I99999999
ssg19
(dp1239
g9
F1.0
sg10
F1.0
sg21
F1.0
sg22
F1.0
sg23
F1.0
sg24
F1.0
sg26
F1.0
ssg27
(dp1240
g9
I14
sg10
I20
sg21
I3
sg22
I4
sg23
I6
sg24
I2
sg26
I5
ssa(dp1241
g7
(dp1242
g9
I10
sg10
I15
ssg11
S'src.0.(1,2,3).4.dst'
p1243
sg13
I6394862
sg14
(dp1244
g18
I99999999
ssg19
(dp1245
g9
F1.0
sg10
F1.0
sg21
F1.0
sg22
F1.0
sg23
F1.0
sg24
F1.0
sg26
F1.0
ssg27
(dp1246
g9
I10
sg10
I15
sg21
I1
sg22
I3
sg23
I4
sg24
I6
sg26
I2
ssa(dp1247
g7
(dp1248
g9
I6
sg10
I16
ssg11
S'src.0.(1,2).dst'
p1249
sg13
I21022180
sg14
(dp1250
g18
I99999999
ssg19
(dp1251
g21
F1.0
sg9
F1.0
sg10
F1.0
sg24
F1.0
sg22
F1.0
ssg27
(dp1252
g21
I5
sg9
I6
sg10
I16
sg24
I1
sg22
I6
ssa(dp1253
g7
(dp1254
g9
I15
sg10
I19
ssg11
S'src.0.(1,2).dst'
p1255
sg13
I5957353
sg14
(dp1256
g18
I99999999
ssg19
(dp1257
g21
F1.0
sg9
F1.0
sg10
F1.0
sg24
F1.0
sg22
F1.0
ssg27
(dp1258
g21
I4
sg9
I15
sg10
I19
sg24
I3
sg22
I5
ssa(dp1259
g7
(dp1260
g9
I14
sg10
I16
ssg11
S'src.0.(1,2).dst'
p1261
sg13
I3644755
sg14
(dp1262
g18
I99999999
ssg19
(dp1263
g21
F1.0
sg9
F1.0
sg10
F1.0
sg24
F1.0
sg22
F1.0
ssg27
(dp1264
g21
I3
sg9
I14
sg10
I16
sg24
I1
sg22
I4
ssa(dp1265
g7
(dp1266
g9
I10
sg10
I14
ssg11
S'src.0.(1,2,3).4.5.dst'
p1267
sg13
I812773
sg14
(dp1268
g18
I99999999
ssg19
(dp1269
g9
F1.0
sg10
F1.0
sg21
F1.0
sg22
F1.0
sg23
F1.0
sg24
F1.0
sg25
F1.0
sg26
F1.0
ssg27
(dp1270
g9
I10
sg10
I14
sg21
I2
sg22
I3
sg23
I0
sg24
I5
sg25
I1
sg26
I6
ssa(dp1271
g7
(dp1272
g9
I4
sg10
I15
ssg11
S'src.0.(1,2).dst'
p1273
sg13
I9500472
sg14
(dp1274
g18
I99999999
ssg19
(dp1275
g21
F1.0
sg9
F1.0
sg10
F1.0
sg24
F1.0
sg22
F1.0
ssg27
(dp1276
g21
I1
sg9
I4
sg10
I15
sg24
I6
sg22
I0
ssa(dp1277
g7
(dp1278
g9
I6
sg10
I20
ssg11
S'src.0.(1,2,3).4.5.dst'
p1279
sg13
I2937439
sg14
(dp1280
g18
I99999999
ssg19
(dp1281
g9
F1.0
sg10
F1.0
sg21
F1.0
sg22
F1.0
sg23
F1.0
sg24
F1.0
sg25
F1.0
sg26
F1.0
ssg27
(dp1282
g9
I6
sg10
I20
sg21
I0
sg22
I4
sg23
I6
sg24
I5
sg25
I1
sg26
I2
ssa(dp1283
g7
(dp1284
g9
I15
sg10
I19
ssg11
S'src.0.(1,2).dst'
p1285
sg13
I5954096
sg14
(dp1286
g18
I99999999
ssg19
(dp1287
g21
F1.0
sg9
F1.0
sg10
F1.0
sg24
F1.0
sg22
F1.0
ssg27
(dp1288
g21
I1
sg9
I15
sg10
I19
sg24
I0
sg22
I4
ssa(dp1289
g7
(dp1290
g9
I4
sg10
I13
ssg11
S'src.0.(1,2,3).4.5.dst'
p1291
sg13
I1390235
sg14
(dp1292
g18
I99999999
ssg19
(dp1293
g9
F1.0
sg10
F1.0
sg21
F1.0
sg22
F1.0
sg23
F1.0
sg24
F1.0
sg25
F1.0
sg26
F1.0
ssg27
(dp1294
g9
I4
sg10
I13
sg21
I0
sg22
I4
sg23
I1
sg24
I2
sg25
I3
sg26
I6
ssa(dp1295
g7
(dp1296
g9
I12
sg10
I14
ssg11
S'src.0.(1,2,3).dst'
p1297
sg13
I1045590
sg14
(dp1298
g18
I99999999
ssg19
(dp1299
g9
F1.0
sg10
F1.0
sg21
F1.0
sg22
F1.0
sg23
F1.0
sg24
F1.0
ssg27
(dp1300
g9
I12
sg10
I14
sg21
I4
sg22
I6
sg23
I3
sg24
I0
ssa(dp1301
g7
(dp1302
g9
I6
sg10
I8
ssg11
S'src.0.(1,2,3).dst'
p1303
sg13
I11133208
sg14
(dp1304
g18
I99999999
ssg19
(dp1305
g9
F1.0
sg10
F1.0
sg21
F1.0
sg22
F1.0
sg23
F1.0
sg24
F1.0
ssg27
(dp1306
g9
I6
sg10
I8
sg21
I6
sg22
I0
sg23
I1
sg24
I3
ssa(dp1307
g7
(dp1308
g9
I12
sg10
I16
ssg11
S'src.0.(1,2,3).4.5.dst'
p1309
sg13
I5067296
sg14
(dp1310
g18
I99999999
ssg19
(dp1311
g9
F1.0
sg10
F1.0
sg21
F1.0
sg22
F1.0
sg23
F1.0
sg24
F1.0
sg25
F1.0
sg26
F1.0
ssg27
(dp1312
g9
I12
sg10
I16
sg21
I0
sg22
I2
sg23
I1
sg24
I3
sg25
I6
sg26
I4
ssa(dp1313
g7
(dp1314
g9
I14
sg10
I15
ssg11
S'src.0.(1,2,3).dst'
p1315
sg13
I3720795
sg14
(dp1316
g18
I99999999
ssg19
(dp1317
g9
F1.0
sg10
F1.0
sg21
F1.0
sg22
F1.0
sg23
F1.0
sg24
F1.0
ssg27
(dp1318
g9
I14
sg10
I15
sg21
I0
sg22
I5
sg23
I6
sg24
I4
ssa(dp1319
g7
(dp1320
g9
I10
sg10
I14
ssg11
S'src.0.(1,2,3).4.dst'
p1321
sg13
I979170
sg14
(dp1322
g18
I99999999
ssg19
(dp1323
g9
F1.0
sg10
F1.0
sg21
F1.0
sg22
F1.0
sg23
F1.0
sg24
F1.0
sg26
F1.0
ssg27
(dp1324
g9
I10
sg10
I14
sg21
I5
sg22
I0
sg23
I2
sg24
I1
sg26
I3
ssa(dp1325
g7
(dp1326
g9
I11
sg10
I15
ssg11
S'src.0.(1,2).dst'
p1327
sg13
I4328803
sg14
(dp1328
g18
I99999999
ssg19
(dp1329
g21
F1.0
sg9
F1.0
sg10
F1.0
sg24
F1.0
sg22
F1.0
ssg27
(dp1330
g21
I1
sg9
I11
sg10
I15
sg24
I0
sg22
I6
ssa(dp1331
g7
(dp1332
g9
I6
sg10
I13
ssg11
S'src.0.(1,2,3).4.5.dst'
p1333
sg13
I4694434
sg14
(dp1334
g18
I99999999
ssg19
(dp1335
g9
F1.0
sg10
F1.0
sg21
F1.0
sg22
F1.0
sg23
F1.0
sg24
F1.0
sg25
F1.0
sg26
F1.0
ssg27
(dp1336
g9
I6
sg10
I13
sg21
I3
sg22
I4
sg23
I6
sg24
I0
sg25
I1
sg26
I2
ssa(dp1337
g7
(dp1338
g9
I4
sg10
I13
ssg11
S'src.0.(1,2,3).4.5.dst'
p1339
sg13
I1390235
sg14
(dp1340
g18
I99999999
ssg19
(dp1341
g9
F1.0
sg10
F1.0
sg21
F1.0
sg22
F1.0
sg23
F1.0
sg24
F1.0
sg25
F1.0
sg26
F1.0
ssg27
(dp1342
g9
I4
sg10
I13
sg21
I0
sg22
I4
sg23
I1
sg24
I2
sg25
I3
sg26
I6
ssa(dp1343
g7
(dp1344
g9
I14
sg10
I20
ssg11
S'src.0.(1,2,3).4.dst'
p1345
sg13
I3499136
sg14
(dp1346
g18
I99999999
ssg19
(dp1347
g9
F1.0
sg10
F1.0
sg21
F1.0
sg22
F1.0
sg23
F1.0
sg24
F1.0
sg26
F1.0
ssg27
(dp1348
g9
I14
sg10
I20
sg21
I2
sg22
I1
sg23
I4
sg24
I3
sg26
I6
ssa(dp1349
g7
(dp1350
g9
I11
sg10
I16
ssg11
S'src.0.(1,2,3).dst'
p1351
sg13
I1719433
sg14
(dp1352
g18
I99999999
ssg19
(dp1353
g9
F1.0
sg10
F1.0
sg21
F1.0
sg22
F1.0
sg23
F1.0
sg24
F1.0
ssg27
(dp1354
g9
I11
sg10
I16
sg21
I0
sg22
I2
sg23
I1
sg24
I3
ssa(dp1355
g7
(dp1356
g9
I9
sg10
I15
ssg11
S'src.0.(1,2,3).4.5.dst'
p1357
sg13
I5353702
sg14
(dp1358
g18
I99999999
ssg19
(dp1359
g9
F1.0
sg10
F1.0
sg21
F1.0
sg22
F1.0
sg23
F1.0
sg24
F1.0
sg25
F1.0
sg26
F1.0
ssg27
(dp1360
g9
I9
sg10
I15
sg21
I1
sg22
I0
sg23
I2
sg24
I4
sg25
I3
sg26
I6
ssa(dp1361
g7
(dp1362
g9
I14
sg10
I19
ssg11
S'src.0.(1,2,3).dst'
p1363
sg13
I2770618
sg14
(dp1364
g18
I99999999
ssg19
(dp1365
g9
F1.0
sg10
F1.0
sg21
F1.0
sg22
F1.0
sg23
F1.0
sg24
F1.0
ssg27
(dp1366
g9
I14
sg10
I19
sg21
I2
sg22
I3
sg23
I4
sg24
I1
ssa(dp1367
g7
(dp1368
g9
I15
sg10
I17
ssg11
S'src.0.(1,2,3).4.dst'
p1369
sg13
I6578460
sg14
(dp1370
g18
I99999999
ssg19
(dp1371
g9
F1.0
sg10
F1.0
sg21
F1.0
sg22
F1.0
sg23
F1.0
sg24
F1.0
sg26
F1.0
ssg27
(dp1372
g9
I15
sg10
I17
sg21
I3
sg22
I0
sg23
I5
sg24
I4
sg26
I6
ssa(dp1373
g7
(dp1374
g9
I6
sg10
I20
ssg11
S'src.0.(1,2).dst'
p1375
sg13
I3228995
sg14
(dp1376
g18
I99999999
ssg19
(dp1377
g21
F1.0
sg9
F1.0
sg10
F1.0
sg24
F1.0
sg22
F1.0
ssg27
(dp1378
g21
I1
sg9
I6
sg10
I20
sg24
I6
sg22
I3
ssa(dp1379
g7
(dp1380
g9
I12
sg10
I17
ssg11
S'src.0.(1,2,3).dst'
p1381
sg13
I5862850
sg14
(dp1382
g18
I99999999
ssg19
(dp1383
g9
F1.0
sg10
F1.0
sg21
F1.0
sg22
F1.0
sg23
F1.0
sg24
F1.0
ssg27
(dp1384
g9
I12
sg10
I17
sg21
I0
sg22
I1
sg23
I4
sg24
I2
ssa(dp1385
g7
(dp1386
g9
I7
sg10
I15
ssg11
S'src.0.(1,2).dst'
p1387
sg13
I1304164
sg14
(dp1388
g18
I99999999
ssg19
(dp1389
g21
F1.0
sg9
F1.0
sg10
F1.0
sg24
F1.0
sg22
F1.0
ssg27
(dp1390
g21
I4
sg9
I7
sg10
I15
sg24
I6
sg22
I1
ssa(dp1391
g7
(dp1392
g9
I11
sg10
I16
ssg11
S'src.0.(1,2,3).4.dst'
p1393
sg13
I1219329
sg14
(dp1394
g18
I99999999
ssg19
(dp1395
g9
F1.0
sg10
F1.0
sg21
F1.0
sg22
F1.0
sg23
F1.0
sg24
F1.0
sg26
F1.0
ssg27
(dp1396
g9
I11
sg10
I16
sg21
I2
sg22
I4
sg23
I0
sg24
I3
sg26
I1
ssa(dp1397
g7
(dp1398
g9
I11
sg10
I16
ssg11
S'src.0.(1,2,3).4.dst'
p1399
sg13
I1219329
sg14
(dp1400
g18
I99999999
ssg19
(dp1401
g9
F1.0
sg10
F1.0
sg21
F1.0
sg22
F1.0
sg23
F1.0
sg24
F1.0
sg26
F1.0
ssg27
(dp1402
g9
I11
sg10
I16
sg21
I2
sg22
I4
sg23
I0
sg24
I3
sg26
I1
ssa(dp1403
g7
(dp1404
g9
I10
sg10
I12
ssg11
S'src.0.(1,2).dst'
p1405
sg13
I163305567
sg14
(dp1406
g18
I99999999
ssg19
(dp1407
g21
F1.0
sg9
F1.0
sg10
F1.0
sg24
F1.0
sg22
F1.0
ssg27
(dp1408
g21
I5
sg9
I10
sg10
I12
sg24
I1
sg22
I4
ssa(dp1409
g7
(dp1410
g9
I14
sg10
I20
ssg11
S'src.0.(1,2,3).4.dst'
p1411
sg13
I1180626
sg14
(dp1412
g18
I99999999
ssg19
(dp1413
g9
F1.0
sg10
F1.0
sg21
F1.0
sg22
F1.0
sg23
F1.0
sg24
F1.0
sg26
F1.0
ssg27
(dp1414
g9
I14
sg10
I20
sg21
I2
sg22
I1
sg23
I5
sg24
I3
sg26
I0
ssa(dp1415
g7
(dp1416
g9
I8
sg10
I15
ssg11
S'src.0.(1,2,3).4.dst'
p1417
sg13
I2662028
sg14
(dp1418
g18
I99999999
ssg19
(dp1419
g9
F1.0
sg10
F1.0
sg21
F1.0
sg22
F1.0
sg23
F1.0
sg24
F1.0
sg26
F1.0
ssg27
(dp1420
g9
I8
sg10
I15
sg21
I4
sg22
I2
sg23
I6
sg24
I0
sg26
I5
ssa(dp1421
g7
(dp1422
g9
I15
sg10
I17
ssg11
S'src.0.(1,2,3).4.5.dst'
p1423
sg13
I3502944
sg14
(dp1424
g18
I99999999
ssg19
(dp1425
g9
F1.0
sg10
F1.0
sg21
F1.0
sg22
F1.0
sg23
F1.0
sg24
F1.0
sg25
F1.0
sg26
F1.0
ssg27
(dp1426
g9
I15
sg10
I17
sg21
I6
sg22
I0
sg23
I4
sg24
I2
sg25
I3
sg26
I1
ssa(dp1427
g7
(dp1428
g9
I3
sg10
I15
ssg11
S'src.0.(1,2,3).4.dst'
p1429
sg13
I1976858
sg14
(dp1430
g18
I99999999
ssg19
(dp1431
g9
F1.0
sg10
F1.0
sg21
F1.0
sg22
F1.0
sg23
F1.0
sg24
F1.0
sg26
F1.0
ssg27
(dp1432
g9
I3
sg10
I15
sg21
I0
sg22
I3
sg23
I5
sg24
I6
sg26
I4
ssa(dp1433
g7
(dp1434
g9
I10
sg10
I17
ssg11
S'src.0.(1,2).dst'
p1435
sg13
I8595607
sg14
(dp1436
g18
I99999999
ssg19
(dp1437
g21
F1.0
sg9
F1.0
sg10
F1.0
sg24
F1.0
sg22
F1.0
ssg27
(dp1438
g21
I4
sg9
I10
sg10
I17
sg24
I3
sg22
I0
ssa(dp1439
g7
(dp1440
g9
I15
sg10
I19
ssg11
S'src.0.(1,2).dst'
p1441
sg13
I6181203
sg14
(dp1442
g18
I99999999
ssg19
(dp1443
g21
F1.0
sg9
F1.0
sg10
F1.0
sg24
F1.0
sg22
F1.0
ssg27
(dp1444
g21
I2
sg9
I15
sg10
I19
sg24
I3
sg22
I1
ssa(dp1445
g7
(dp1446
g9
I3
sg10
I14
ssg11
S'src.0.(1,2,3).dst'
p1447
sg13
I1067859
sg14
(dp1448
g18
I99999999
ssg19
(dp1449
g9
F1.0
sg10
F1.0
sg21
F1.0
sg22
F1.0
sg23
F1.0
sg24
F1.0
ssg27
(dp1450
g9
I3
sg10
I14
sg21
I3
sg22
I2
sg23
I4
sg24
I1
ssa(dp1451
g7
(dp1452
g9
I13
sg10
I15
ssg11
S'src.0.(1,2,3).dst'
p1453
sg13
I13756304
sg14
(dp1454
g18
I99999999
ssg19
(dp1455
g9
F1.0
sg10
F1.0
sg21
F1.0
sg22
F1.0
sg23
F1.0
sg24
F1.0
ssg27
(dp1456
g9
I13
sg10
I15
sg21
I6
sg22
I4
sg23
I0
sg24
I5
ssa(dp1457
g7
(dp1458
g9
I10
sg10
I14
ssg11
S'src.0.(1,2).dst'
p1459
sg13
I879888
sg14
(dp1460
g18
I99999999
ssg19
(dp1461
g21
F1.0
sg9
F1.0
sg10
F1.0
sg24
F1.0
sg22
F1.0
ssg27
(dp1462
g21
I0
sg9
I10
sg10
I14
sg24
I1
sg22
I3
ssa(dp1463
g7
(dp1464
g9
I13
sg10
I14
ssg11
S'src.0.(1,2,3).4.5.dst'
p1465
sg13
I948896
sg14
(dp1466
g18
I99999999
ssg19
(dp1467
g9
F1.0
sg10
F1.0
sg21
F1.0
sg22
F1.0
sg23
F1.0
sg24
F1.0
sg25
F1.0
sg26
F1.0
ssg27
(dp1468
g9
I13
sg10
I14
sg21
I6
sg22
I5
sg23
I1
sg24
I4
sg25
I0
sg26
I3
ssa(dp1469
g7
(dp1470
g9
I6
sg10
I16
ssg11
S'src.0.(1,2).dst'
p1471
sg13
I878901
sg14
(dp1472
g18
I99999999
ssg19
(dp1473
g21
F1.0
sg9
F1.0
sg10
F1.0
sg24
F1.0
sg22
F1.0
ssg27
(dp1474
g21
I6
sg9
I6
sg10
I16
sg24
I3
sg22
I0
ssa(dp1475
g7
(dp1476
g9
I11
sg10
I12
ssg11
S'src.0.(1,2,3).4.dst'
p1477
sg13
I2885196
sg14
(dp1478
g18
I99999999
ssg19
(dp1479
g9
F1.0
sg10
F1.0
sg21
F1.0
sg22
F1.0
sg23
F1.0
sg24
F1.0
sg26
F1.0
ssg27
(dp1480
g9
I11
sg10
I12
sg21
I5
sg22
I4
sg23
I0
sg24
I2
sg26
I1
ssa(dp1481
g7
(dp1482
g9
I11
sg10
I12
ssg11
S'src.0.(1,2,3).4.5.dst'
p1483
sg13
I4145669
sg14
(dp1484
g18
I99999999
ssg19
(dp1485
g9
F1.0
sg10
F1.0
sg21
F1.0
sg22
F1.0
sg23
F1.0
sg24
F1.0
sg25
F1.0
sg26
F1.0
ssg27
(dp1486
g9
I11
sg10
I12
sg21
I5
sg22
I0
sg23
I4
sg24
I1
sg25
I2
sg26
I6
ssa(dp1487
g7
(dp1488
g9
I12
sg10
I15
ssg11
S'src.0.(1,2).dst'
p1489
sg13
I4799916
sg14
(dp1490
g18
I99999999
ssg19
(dp1491
g21
F1.0
sg9
F1.0
sg10
F1.0
sg24
F1.0
sg22
F1.0
ssg27
(dp1492
g21
I5
sg9
I12
sg10
I15
sg24
I6
sg22
I2
ssa(dp1493
g7
(dp1494
g9
I15
sg10
I20
ssg11
S'src.0.(1,2,3).dst'
p1495
sg13
I18742960
sg14
(dp1496
g18
I99999999
ssg19
(dp1497
g9
F1.0
sg10
F1.0
sg21
F1.0
sg22
F1.0
sg23
F1.0
sg24
F1.0
ssg27
(dp1498
g9
I15
sg10
I20
sg21
I3
sg22
I5
sg23
I1
sg24
I2
ssa(dp1499
g7
(dp1500
g9
I11
sg10
I16
ssg11
S'src.0.(1,2,3).4.dst'
p1501
sg13
I4095855
sg14
(dp1502
g18
I99999999
ssg19
(dp1503
g9
F1.0
sg10
F1.0
sg21
F1.0
sg22
F1.0
sg23
F1.0
sg24
F1.0
sg26
F1.0
ssg27
(dp1504
g9
I11
sg10
I16
sg21
I0
sg22
I2
sg23
I6
sg24
I1
sg26
I5
ssa(dp1505
g7
(dp1506
g9
I11
sg10
I20
ssg11
S'src.0.(1,2).dst'
p1507
sg13
I2438364
sg14
(dp1508
g18
I99999999
ssg19
(dp1509
g21
F1.0
sg9
F1.0
sg10
F1.0
sg24
F1.0
sg22
F1.0
ssg27
(dp1510
g21
I2
sg9
I11
sg10
I20
sg24
I4
sg22
I6
ssa(dp1511
g7
(dp1512
g9
I10
sg10
I14
ssg11
S'src.0.(1,2,3).4.5.dst'
p1513
sg13
I812773
sg14
(dp1514
g18
I99999999
ssg19
(dp1515
g9
F1.0
sg10
F1.0
sg21
F1.0
sg22
F1.0
sg23
F1.0
sg24
F1.0
sg25
F1.0
sg26
F1.0
ssg27
(dp1516
g9
I10
sg10
I14
sg21
I2
sg22
I3
sg23
I0
sg24
I5
sg25
I1
sg26
I6
ssa(dp1517
g7
(dp1518
g9
I15
sg10
I19
ssg11
S'src.0.(1,2).dst'
p1519
sg13
I5957353
sg14
(dp1520
g18
I99999999
ssg19
(dp1521
g21
F1.0
sg9
F1.0
sg10
F1.0
sg24
F1.0
sg22
F1.0
ssg27
(dp1522
g21
I4
sg9
I15
sg10
I19
sg24
I3
sg22
I5
ssa(dp1523
g7
(dp1524
g9
I1
sg10
I7
ssg11
S'src.0.(1,2,3).4.dst'
p1525
sg13
I3388428
sg14
(dp1526
g18
I99999999
ssg19
(dp1527
g9
F1.0
sg10
F1.0
sg21
F1.0
sg22
F1.0
sg23
F1.0
sg24
F1.0
sg26
F1.0
ssg27
(dp1528
g9
I1
sg10
I7
sg21
I5
sg22
I1
sg23
I3
sg24
I2
sg26
I0
ssa(dp1529
g7
(dp1530
g9
I10
sg10
I20
ssg11
S'src.0.(1,2,3).4.dst'
p1531
sg13
I1762123
sg14
(dp1532
g18
I99999999
ssg19
(dp1533
g9
F1.0
sg10
F1.0
sg21
F1.0
sg22
F1.0
sg23
F1.0
sg24
F1.0
sg26
F1.0
ssg27
(dp1534
g9
I10
sg10
I20
sg21
I5
sg22
I2
sg23
I0
sg24
I6
sg26
I4
ssa(dp1535
g7
(dp1536
g9
I9
sg10
I16
ssg11
S'src.0.(1,2,3).dst'
p1537
sg13
I998622
sg14
(dp1538
g18
I99999999
ssg19
(dp1539
g9
F1.0
sg10
F1.0
sg21
F1.0
sg22
F1.0
sg23
F1.0
sg24
F1.0
ssg27
(dp1540
g9
I9
sg10
I16
sg21
I4
sg22
I6
sg23
I2
sg24
I0
ssa(dp1541
g7
(dp1542
g9
I4
sg10
I11
ssg11
S'src.0.(1,2,3).4.dst'
p1543
sg13
I815196
sg14
(dp1544
g18
I99999999
ssg19
(dp1545
g9
F1.0
sg10
F1.0
sg21
F1.0
sg22
F1.0
sg23
F1.0
sg24
F1.0
sg26
F1.0
ssg27
(dp1546
g9
I4
sg10
I11
sg21
I3
sg22
I1
sg23
I6
sg24
I2
sg26
I4
ssa(dp1547
g7
(dp1548
g9
I14
sg10
I19
ssg11
S'src.0.(1,2,3).dst'
p1549
sg13
I2770618
sg14
(dp1550
g18
I99999999
ssg19
(dp1551
g9
F1.0
sg10
F1.0
sg21
F1.0
sg22
F1.0
sg23
F1.0
sg24
F1.0
ssg27
(dp1552
g9
I14
sg10
I19
sg21
I2
sg22
I3
sg23
I4
sg24
I1
ssa(dp1553
g7
(dp1554
g9
I11
sg10
I16
ssg11
S'src.0.(1,2,3).4.dst'
p1555
sg13
I2957536
sg14
(dp1556
g18
I99999999
ssg19
(dp1557
g9
F1.0
sg10
F1.0
sg21
F1.0
sg22
F1.0
sg23
F1.0
sg24
F1.0
sg26
F1.0
ssg27
(dp1558
g9
I11
sg10
I16
sg21
I4
sg22
I0
sg23
I6
sg24
I1
sg26
I5
ssa(dp1559
g7
(dp1560
g9
I15
sg10
I17
ssg11
S'src.0.(1,2,3).dst'
p1561
sg13
I4608356
sg14
(dp1562
g18
I99999999
ssg19
(dp1563
g9
F1.0
sg10
F1.0
sg21
F1.0
sg22
F1.0
sg23
F1.0
sg24
F1.0
ssg27
(dp1564
g9
I15
sg10
I17
sg21
I3
sg22
I2
sg23
I1
sg24
I0
ssa(dp1565
g7
(dp1566
g9
I4
sg10
I15
ssg11
S'src.0.(1,2).dst'
p1567
sg13
I9500472
sg14
(dp1568
g18
I99999999
ssg19
(dp1569
g21
F1.0
sg9
F1.0
sg10
F1.0
sg24
F1.0
sg22
F1.0
ssg27
(dp1570
g21
I1
sg9
I4
sg10
I15
sg24
I6
sg22
I0
ssa(dp1571
g7
(dp1572
g9
I10
sg10
I14
ssg11
S'src.0.(1,2).dst'
p1573
sg13
I879888
sg14
(dp1574
g18
I99999999
ssg19
(dp1575
g21
F1.0
sg9
F1.0
sg10
F1.0
sg24
F1.0
sg22
F1.0
ssg27
(dp1576
g21
I0
sg9
I10
sg10
I14
sg24
I1
sg22
I3
ssa(dp1577
g7
(dp1578
g9
I7
sg10
I15
ssg11
S'src.0.(1,2,3).dst'
p1579
sg13
I1142854
sg14
(dp1580
g18
I99999999
ssg19
(dp1581
g9
F1.0
sg10
F1.0
sg21
F1.0
sg22
F1.0
sg23
F1.0
sg24
F1.0
ssg27
(dp1582
g9
I7
sg10
I15
sg21
I6
sg22
I0
sg23
I4
sg24
I2
ssa(dp1583
g7
(dp1584
g9
I12
sg10
I17
ssg11
S'src.0.(1,2,3).dst'
p1585
sg13
I5862850
sg14
(dp1586
g18
I99999999
ssg19
(dp1587
g9
F1.0
sg10
F1.0
sg21
F1.0
sg22
F1.0
sg23
F1.0
sg24
F1.0
ssg27
(dp1588
g9
I12
sg10
I17
sg21
I0
sg22
I1
sg23
I4
sg24
I2
ssa(dp1589
g7
(dp1590
g9
I7
sg10
I15
ssg11
S'src.0.(1,2).dst'
p1591
sg13
I1304164
sg14
(dp1592
g18
I99999999
ssg19
(dp1593
g21
F1.0
sg9
F1.0
sg10
F1.0
sg24
F1.0
sg22
F1.0
ssg27
(dp1594
g21
I4
sg9
I7
sg10
I15
sg24
I6
sg22
I1
ssa(dp1595
g7
(dp1596
g9
I15
sg10
I19
ssg11
S'src.0.(1,2).dst'
p1597
sg13
I5954096
sg14
(dp1598
g18
I99999999
ssg19
(dp1599
g21
F1.0
sg9
F1.0
sg10
F1.0
sg24
F1.0
sg22
F1.0
ssg27
(dp1600
g21
I1
sg9
I15
sg10
I19
sg24
I0
sg22
I4
ssa(dp1601
g7
(dp1602
g9
I6
sg10
I15
ssg11
S'src.0.(1,2,3).4.5.dst'
p1603
sg13
I3454630
sg14
(dp1604
g18
I99999999
ssg19
(dp1605
g9
F1.0
sg10
F1.0
sg21
F1.0
sg22
F1.0
sg23
F1.0
sg24
F1.0
sg25
F1.0
sg26
F1.0
ssg27
(dp1606
g9
I6
sg10
I15
sg21
I0
sg22
I1
sg23
I5
sg24
I3
sg25
I2
sg26
I6
ssa(dp1607
g7
(dp1608
g9
I11
sg10
I15
ssg11
S'src.0.(1,2,3).dst'
p1609
sg13
I7970469
sg14
(dp1610
g18
I99999999
ssg19
(dp1611
g9
F1.0
sg10
F1.0
sg21
F1.0
sg22
F1.0
sg23
F1.0
sg24
F1.0
ssg27
(dp1612
g9
I11
sg10
I15
sg21
I4
sg22
I0
sg23
I5
sg24
I3
ssa(dp1613
g7
(dp1614
g9
I11
sg10
I13
ssg11
S'src.0.(1,2).dst'
p1615
sg13
I810817
sg14
(dp1616
g18
I99999999
ssg19
(dp1617
g21
F1.0
sg9
F1.0
sg10
F1.0
sg24
F1.0
sg22
F1.0
ssg27
(dp1618
g21
I1
sg9
I11
sg10
I13
sg24
I5
sg22
I4
ssa(dp1619
g7
(dp1620
g9
I9
sg10
I15
ssg11
S'src.0.(1,2,3).4.5.dst'
p1621
sg13
I4486788
sg14
(dp1622
g18
I99999999
ssg19
(dp1623
g9
F1.0
sg10
F1.0
sg21
F1.0
sg22
F1.0
sg23
F1.0
sg24
F1.0
sg25
F1.0
sg26
F1.0
ssg27
(dp1624
g9
I9
sg10
I15
sg21
I6
sg22
I4
sg23
I0
sg24
I5
sg25
I3
sg26
I2
ssa(dp1625
g7
(dp1626
g9
I13
sg10
I15
ssg11
S'src.0.(1,2,3).4.dst'
p1627
sg13
I3382071
sg14
(dp1628
g18
I99999999
ssg19
(dp1629
g9
F1.0
sg10
F1.0
sg21
F1.0
sg22
F1.0
sg23
F1.0
sg24
F1.0
sg26
F1.0
ssg27
(dp1630
g9
I13
sg10
I15
sg21
I3
sg22
I1
sg23
I2
sg24
I0
sg26
I4
ssa(dp1631
g7
(dp1632
g9
I10
sg10
I16
ssg11
S'src.0.(1,2,3).4.5.dst'
p1633
sg13
I1059196
sg14
(dp1634
g18
I99999999
ssg19
(dp1635
g9
F1.0
sg10
F1.0
sg21
F1.0
sg22
F1.0
sg23
F1.0
sg24
F1.0
sg25
F1.0
sg26
F1.0
ssg27
(dp1636
g9
I10
sg10
I16
sg21
I6
sg22
I1
sg23
I0
sg24
I3
sg25
I2
sg26
I4
ssa(dp1637
g7
(dp1638
g9
I12
sg10
I14
ssg11
S'src.0.(1,2,3).4.5.dst'
p1639
sg13
I1440375
sg14
(dp1640
g18
I99999999
ssg19
(dp1641
g9
F1.0
sg10
F1.0
sg21
F1.0
sg22
F1.0
sg23
F1.0
sg24
F1.0
sg25
F1.0
sg26
F1.0
ssg27
(dp1642
g9
I12
sg10
I14
sg21
I5
sg22
I0
sg23
I4
sg24
I1
sg25
I3
sg26
I2
ssa(dp1643
g7
(dp1644
g9
I10
sg10
I14
ssg11
S'src.0.(1,2,3).4.5.dst'
p1645
sg13
I812773
sg14
(dp1646
g18
I99999999
ssg19
(dp1647
g9
F1.0
sg10
F1.0
sg21
F1.0
sg22
F1.0
sg23
F1.0
sg24
F1.0
sg25
F1.0
sg26
F1.0
ssg27
(dp1648
g9
I10
sg10
I14
sg21
I2
sg22
I3
sg23
I0
sg24
I5
sg25
I1
sg26
I6
ssa(dp1649
g7
(dp1650
g9
I14
sg10
I15
ssg11
S'src.0.(1,2,3).dst'
p1651
sg13
I4503350
sg14
(dp1652
g18
I99999999
ssg19
(dp1653
g9
F1.0
sg10
F1.0
sg21
F1.0
sg22
F1.0
sg23
F1.0
sg24
F1.0
ssg27
(dp1654
g9
I14
sg10
I15
sg21
I1
sg22
I3
sg23
I6
sg24
I0
ssa(dp1655
g7
(dp1656
g9
I1
sg10
I10
ssg11
S'src.0.(1,2,3).dst'
p1657
sg13
I17134316
sg14
(dp1658
g18
I99999999
ssg19
(dp1659
g9
F1.0
sg10
F1.0
sg21
F1.0
sg22
F1.0
sg23
F1.0
sg24
F1.0
ssg27
(dp1660
g9
I1
sg10
I10
sg21
I3
sg22
I4
sg23
I6
sg24
I0
ssa(dp1661
g7
(dp1662
g9
I5
sg10
I14
ssg11
S'src.0.(1,2,3).4.5.dst'
p1663
sg13
I1641941
sg14
(dp1664
g18
I99999999
ssg19
(dp1665
g9
F1.0
sg10
F1.0
sg21
F1.0
sg22
F1.0
sg23
F1.0
sg24
F1.0
sg25
F1.0
sg26
F1.0
ssg27
(dp1666
g9
I5
sg10
I14
sg21
I3
sg22
I4
sg23
I1
sg24
I5
sg25
I2
sg26
I0
ssa(dp1667
g7
(dp1668
g9
I3
sg10
I14
ssg11
S'src.0.(1,2,3).dst'
p1669
sg13
I1067859
sg14
(dp1670
g18
I99999999
ssg19
(dp1671
g9
F1.0
sg10
F1.0
sg21
F1.0
sg22
F1.0
sg23
F1.0
sg24
F1.0
ssg27
(dp1672
g9
I3
sg10
I14
sg21
I3
sg22
I2
sg23
I4
sg24
I1
ssa(dp1673
g7
(dp1674
g9
I5
sg10
I15
ssg11
S'src.0.(1,2,3).dst'
p1675
sg13
I3446220
sg14
(dp1676
g18
I99999999
ssg19
(dp1677
g9
F1.0
sg10
F1.0
sg21
F1.0
sg22
F1.0
sg23
F1.0
sg24
F1.0
ssg27
(dp1678
g9
I5
sg10
I15
sg21
I4
sg22
I3
sg23
I2
sg24
I6
ssa(dp1679
g7
(dp1680
g9
I14
sg10
I19
ssg11
S'src.0.(1,2).dst'
p1681
sg13
I4665192
sg14
(dp1682
g18
I99999999
ssg19
(dp1683
g21
F1.0
sg9
F1.0
sg10
F1.0
sg24
F1.0
sg22
F1.0
ssg27
(dp1684
g21
I3
sg9
I14
sg10
I19
sg24
I6
sg22
I4
ssa(dp1685
g7
(dp1686
g9
I11
sg10
I16
ssg11
S'src.0.(1,2).dst'
p1687
sg13
I4189120
sg14
(dp1688
g18
I99999999
ssg19
(dp1689
g21
F1.0
sg9
F1.0
sg10
F1.0
sg24
F1.0
sg22
F1.0
ssg27
(dp1690
g21
I1
sg9
I11
sg10
I16
sg24
I2
sg22
I3
ssa(dp1691
g7
(dp1692
g9
I6
sg10
I8
ssg11
S'src.0.(1,2,3).4.dst'
p1693
sg13
I26334480
sg14
(dp1694
g18
I99999999
ssg19
(dp1695
g9
F1.0
sg10
F1.0
sg21
F1.0
sg22
F1.0
sg23
F1.0
sg24
F1.0
sg26
F1.0
ssg27
(dp1696
g9
I6
sg10
I8
sg21
I0
sg22
I3
sg23
I2
sg24
I1
sg26
I6
ssa(dp1697
g7
(dp1698
g9
I5
sg10
I6
ssg11
S'src.0.(1,2).dst'
p1699
sg13
I2333342
sg14
(dp1700
g18
I99999999
ssg19
(dp1701
g21
F1.0
sg9
F1.0
sg10
F1.0
sg24
F1.0
sg22
F1.0
ssg27
(dp1702
g21
I4
sg9
I5
sg10
I6
sg24
I3
sg22
I1
ssa(dp1703
g7
(dp1704
g9
I11
sg10
I19
ssg11
S'src.0.(1,2).dst'
p1705
sg13
I2496601
sg14
(dp1706
g18
I99999999
ssg19
(dp1707
g21
F1.0
sg9
F1.0
sg10
F1.0
sg24
F1.0
sg22
F1.0
ssg27
(dp1708
g21
I5
sg9
I11
sg10
I19
sg24
I1
sg22
I0
ssa(dp1709
g7
(dp1710
g9
I4
sg10
I8
ssg11
S'src.0.(1,2,3).4.dst'
p1711
sg13
I949227
sg14
(dp1712
g18
I99999999
ssg19
(dp1713
g9
F1.0
sg10
F1.0
sg21
F1.0
sg22
F1.0
sg23
F1.0
sg24
F1.0
sg26
F1.0
ssg27
(dp1714
g9
I4
sg10
I8
sg21
I0
sg22
I4
sg23
I6
sg24
I3
sg26
I1
ssa(dp1715
g7
(dp1716
g9
I12
sg10
I15
ssg11
S'src.0.(1,2,3).dst'
p1717
sg13
I1060048
sg14
(dp1718
g18
I99999999
ssg19
(dp1719
g9
F1.0
sg10
F1.0
sg21
F1.0
sg22
F1.0
sg23
F1.0
sg24
F1.0
ssg27
(dp1720
g9
I12
sg10
I15
sg21
I6
sg22
I0
sg23
I4
sg24
I5
ssa(dp1721
g7
(dp1722
g9
I14
sg10
I20
ssg11
S'src.0.(1,2,3).4.dst'
p1723
sg13
I1180626
sg14
(dp1724
g18
I99999999
ssg19
(dp1725
g9
F1.0
sg10
F1.0
sg21
F1.0
sg22
F1.0
sg23
F1.0
sg24
F1.0
sg26
F1.0
ssg27
(dp1726
g9
I14
sg10
I20
sg21
I2
sg22
I1
sg23
I5
sg24
I3
sg26
I0
ssa(dp1727
g7
(dp1728
g9
I15
sg10
I20
ssg11
S'src.0.(1,2,3).dst'
p1729
sg13
I18742960
sg14
(dp1730
g18
I99999999
ssg19
(dp1731
g9
F1.0
sg10
F1.0
sg21
F1.0
sg22
F1.0
sg23
F1.0
sg24
F1.0
ssg27
(dp1732
g9
I15
sg10
I20
sg21
I3
sg22
I5
sg23
I1
sg24
I2
ssa(dp1733
g7
(dp1734
g9
I1
sg10
I7
ssg11
S'src.0.(1,2,3).4.dst'
p1735
sg13
I3388428
sg14
(dp1736
g18
I99999999
ssg19
(dp1737
g9
F1.0
sg10
F1.0
sg21
F1.0
sg22
F1.0
sg23
F1.0
sg24
F1.0
sg26
F1.0
ssg27
(dp1738
g9
I1
sg10
I7
sg21
I5
sg22
I1
sg23
I3
sg24
I2
sg26
I0
ssa(dp1739
g7
(dp1740
g9
I15
sg10
I20
ssg11
S'src.0.(1,2,3).4.dst'
p1741
sg13
I25342157
sg14
(dp1742
g18
I99999999
ssg19
(dp1743
g9
F1.0
sg10
F1.0
sg21
F1.0
sg22
F1.0
sg23
F1.0
sg24
F1.0
sg26
F1.0
ssg27
(dp1744
g9
I15
sg10
I20
sg21
I0
sg22
I4
sg23
I5
sg24
I2
sg26
I6
ssa(dp1745
g7
(dp1746
g9
I1
sg10
I15
ssg11
S'src.0.(1,2,3).4.5.dst'
p1747
sg13
I11769774
sg14
(dp1748
g18
I99999999
ssg19
(dp1749
g9
F1.0
sg10
F1.0
sg21
F1.0
sg22
F1.0
sg23
F1.0
sg24
F1.0
sg25
F1.0
sg26
F1.0
ssg27
(dp1750
g9
I1
sg10
I15
sg21
I2
sg22
I6
sg23
I0
sg24
I5
sg25
I3
sg26
I1
ssa(dp1751
g7
(dp1752
g9
I5
sg10
I14
ssg11
S'src.0.(1,2,3).4.5.dst'
p1753
sg13
I1641941
sg14
(dp1754
g18
I99999999
ssg19
(dp1755
g9
F1.0
sg10
F1.0
sg21
F1.0
sg22
F1.0
sg23
F1.0
sg24
F1.0
sg25
F1.0
sg26
F1.0
ssg27
(dp1756
g9
I5
sg10
I14
sg21
I3
sg22
I4
sg23
I1
sg24
I5
sg25
I2
sg26
I0
ssa(dp1757
g7
(dp1758
g9
I12
sg10
I16
ssg11
S'src.0.(1,2,3).4.5.dst'
p1759
sg13
I5067296
sg14
(dp1760
g18
I99999999
ssg19
(dp1761
g9
F1.0
sg10
F1.0
sg21
F1.0
sg22
F1.0
sg23
F1.0
sg24
F1.0
sg25
F1.0
sg26
F1.0
ssg27
(dp1762
g9
I12
sg10
I16
sg21
I0
sg22
I2
sg23
I1
sg24
I3
sg25
I6
sg26
I4
ssa(dp1763
g7
(dp1764
g9
I10
sg10
I17
ssg11
S'src.0.(1,2).dst'
p1765
sg13
I17022243
sg14
(dp1766
g18
I99999999
ssg19
(dp1767
g21
F1.0
sg9
F1.0
sg10
F1.0
sg24
F1.0
sg22
F1.0
ssg27
(dp1768
g21
I1
sg9
I10
sg10
I17
sg24
I5
sg22
I4
ssa(dp1769
g7
(dp1770
g9
I14
sg10
I20
ssg11
S'src.0.(1,2).dst'
p1771
sg13
I4595428
sg14
(dp1772
g18
I99999999
ssg19
(dp1773
g21
F1.0
sg9
F1.0
sg10
F1.0
sg24
F1.0
sg22
F1.0
ssg27
(dp1774
g21
I6
sg9
I14
sg10
I20
sg24
I5
sg22
I1
ssa(dp1775
g7
(dp1776
g9
I6
sg10
I7
ssg11
S'src.0.(1,2,3).4.dst'
p1777
sg13
I51468610
sg14
(dp1778
g18
I99999999
ssg19
(dp1779
g9
F1.0
sg10
F1.0
sg21
F1.0
sg22
F1.0
sg23
F1.0
sg24
F1.0
sg26
F1.0
ssg27
(dp1780
g9
I6
sg10
I7
sg21
I4
sg22
I2
sg23
I0
sg24
I5
sg26
I6
ssa(dp1781
g7
(dp1782
g9
I1
sg10
I15
ssg11
S'src.0.(1,2,3).4.5.dst'
p1783
sg13
I4179459
sg14
(dp1784
g18
I99999999
ssg19
(dp1785
g9
F1.0
sg10
F1.0
sg21
F1.0
sg22
F1.0
sg23
F1.0
sg24
F1.0
sg25
F1.0
sg26
F1.0
ssg27
(dp1786
g9
I1
sg10
I15
sg21
I0
sg22
I2
sg23
I3
sg24
I5
sg25
I4
sg26
I1
ssa(dp1787
g7
(dp1788
g9
I10
sg10
I20
ssg11
S'src.0.(1,2,3).4.dst'
p1789
sg13
I1762123
sg14
(dp1790
g18
I99999999
ssg19
(dp1791
g9
F1.0
sg10
F1.0
sg21
F1.0
sg22
F1.0
sg23
F1.0
sg24
F1.0
sg26
F1.0
ssg27
(dp1792
g9
I10
sg10
I20
sg21
I5
sg22
I2
sg23
I0
sg24
I6
sg26
I4
ssa(dp1793
g7
(dp1794
g9
I15
sg10
I19
ssg11
S'src.0.(1,2).dst'
p1795
sg13
I10081440
sg14
(dp1796
g18
I99999999
ssg19
(dp1797
g21
F1.0
sg9
F1.0
sg10
F1.0
sg24
F1.0
sg22
F1.0
ssg27
(dp1798
g21
I5
sg9
I15
sg10
I19
sg24
I4
sg22
I0
ssa(dp1799
g7
(dp1800
g9
I11
sg10
I20
ssg11
S'src.0.(1,2).dst'
p1801
sg13
I2438364
sg14
(dp1802
g18
I99999999
ssg19
(dp1803
g21
F1.0
sg9
F1.0
sg10
F1.0
sg24
F1.0
sg22
F1.0
ssg27
(dp1804
g21
I2
sg9
I11
sg10
I20
sg24
I4
sg22
I6
ssa(dp1805
g7
(dp1806
g9
I14
sg10
I16
ssg11
S'src.0.(1,2,3).4.dst'
p1807
sg13
I904626
sg14
(dp1808
g18
I99999999
ssg19
(dp1809
g9
F1.0
sg10
F1.0
sg21
F1.0
sg22
F1.0
sg23
F1.0
sg24
F1.0
sg26
F1.0
ssg27
(dp1810
g9
I14
sg10
I16
sg21
I0
sg22
I3
sg23
I5
sg24
I2
sg26
I1
ssa(dp1811
g7
(dp1812
g9
I14
sg10
I17
ssg11
S'src.0.(1,2,3).4.5.dst'
p1813
sg13
I4029393
sg14
(dp1814
g18
I99999999
ssg19
(dp1815
g9
F1.0
sg10
F1.0
sg21
F1.0
sg22
F1.0
sg23
F1.0
sg24
F1.0
sg25
F1.0
sg26
F1.0
ssg27
(dp1816
g9
I14
sg10
I17
sg21
I0
sg22
I3
sg23
I6
sg24
I2
sg25
I1
sg26
I5
ssa(dp1817
g7
(dp1818
g9
I10
sg10
I12
ssg11
S'src.0.(1,2).dst'
p1819
sg13
I163305567
sg14
(dp1820
g18
I99999999
ssg19
(dp1821
g21
F1.0
sg9
F1.0
sg10
F1.0
sg24
F1.0
sg22
F1.0
ssg27
(dp1822
g21
I5
sg9
I10
sg10
I12
sg24
I1
sg22
I4
ssa(dp1823
g7
(dp1824
g9
I10
sg10
I17
ssg11
S'src.0.(1,2).dst'
p1825
sg13
I17022243
sg14
(dp1826
g18
I99999999
ssg19
(dp1827
g21
F1.0
sg9
F1.0
sg10
F1.0
sg24
F1.0
sg22
F1.0
ssg27
(dp1828
g21
I1
sg9
I10
sg10
I17
sg24
I5
sg22
I4
ssa(dp1829
g7
(dp1830
g9
I11
sg10
I15
ssg11
S'src.0.(1,2).dst'
p1831
sg13
I4328803
sg14
(dp1832
g18
I99999999
ssg19
(dp1833
g21
F1.0
sg9
F1.0
sg10
F1.0
sg24
F1.0
sg22
F1.0
ssg27
(dp1834
g21
I1
sg9
I11
sg10
I15
sg24
I0
sg22
I6
ssa(dp1835
g7
(dp1836
g9
I6
sg10
I16
ssg11
S'src.0.(1,2).dst'
p1837
sg13
I21022180
sg14
(dp1838
g18
I99999999
ssg19
(dp1839
g21
F1.0
sg9
F1.0
sg10
F1.0
sg24
F1.0
sg22
F1.0
ssg27
(dp1840
g21
I5
sg9
I6
sg10
I16
sg24
I1
sg22
I6
ssa(dp1841
g7
(dp1842
g9
I1
sg10
I7
ssg11
S'src.0.(1,2,3).4.dst'
p1843
sg13
I3108988
sg14
(dp1844
g18
I99999999
ssg19
(dp1845
g9
F1.0
sg10
F1.0
sg21
F1.0
sg22
F1.0
sg23
F1.0
sg24
F1.0
sg26
F1.0
ssg27
(dp1846
g9
I1
sg10
I7
sg21
I2
sg22
I5
sg23
I0
sg24
I1
sg26
I6
ssa(dp1847
g7
(dp1848
g9
I9
sg10
I12
ssg11
S'src.0.(1,2).dst'
p1849
sg13
I1157334
sg14
(dp1850
g18
I99999999
ssg19
(dp1851
g21
F1.0
sg9
F1.0
sg10
F1.0
sg24
F1.0
sg22
F1.0
ssg27
(dp1852
g21
I6
sg9
I9
sg10
I12
sg24
I0
sg22
I4
ssa(dp1853
g7
(dp1854
g9
I4
sg10
I15
ssg11
S'src.0.(1,2).dst'
p1855
sg13
I13810050
sg14
(dp1856
g18
I99999999
ssg19
(dp1857
g21
F1.0
sg9
F1.0
sg10
F1.0
sg24
F1.0
sg22
F1.0
ssg27
(dp1858
g21
I2
sg9
I4
sg10
I15
sg24
I0
sg22
I6
ssa(dp1859
g7
(dp1860
g9
I7
sg10
I19
ssg11
S'src.0.(1,2).dst'
p1861
sg13
I6428818
sg14
(dp1862
g18
I99999999
ssg19
(dp1863
g21
F1.0
sg9
F1.0
sg10
F1.0
sg24
F1.0
sg22
F1.0
ssg27
(dp1864
g21
I5
sg9
I7
sg10
I19
sg24
I1
sg22
I4
ssa(dp1865
g7
(dp1866
g9
I10
sg10
I17
ssg11
S'src.0.(1,2).dst'
p1867
sg13
I8595607
sg14
(dp1868
g18
I99999999
ssg19
(dp1869
g21
F1.0
sg9
F1.0
sg10
F1.0
sg24
F1.0
sg22
F1.0
ssg27
(dp1870
g21
I4
sg9
I10
sg10
I17
sg24
I3
sg22
I0
ssa(dp1871
g7
(dp1872
g9
I14
sg10
I19
ssg11
S'src.0.(1,2).dst'
p1873
sg13
I4665192
sg14
(dp1874
g18
I99999999
ssg19
(dp1875
g21
F1.0
sg9
F1.0
sg10
F1.0
sg24
F1.0
sg22
F1.0
ssg27
(dp1876
g21
I3
sg9
I14
sg10
I19
sg24
I6
sg22
I4
ssa(dp1877
g7
(dp1878
g9
I14
sg10
I17
ssg11
S'src.0.(1,2,3).4.5.dst'
p1879
sg13
I4241803
sg14
(dp1880
g18
I99999999
ssg19
(dp1881
g9
F1.0
sg10
F1.0
sg21
F1.0
sg22
F1.0
sg23
F1.0
sg24
F1.0
sg25
F1.0
sg26
F1.0
ssg27
(dp1882
g9
I14
sg10
I17
sg21
I3
sg22
I2
sg23
I0
sg24
I1
sg25
I5
sg26
I6
ssa(dp1883
g7
(dp1884
g9
I8
sg10
I14
ssg11
S'src.0.(1,2,3).4.dst'
p1885
sg13
I1192235
sg14
(dp1886
g18
I99999999
ssg19
(dp1887
g9
F1.0
sg10
F1.0
sg21
F1.0
sg22
F1.0
sg23
F1.0
sg24
F1.0
sg26
F1.0
ssg27
(dp1888
g9
I8
sg10
I14
sg21
I5
sg22
I1
sg23
I2
sg24
I6
sg26
I4
ssa(dp1889
g7
(dp1890
g9
I9
sg10
I15
ssg11
S'src.0.(1,2).dst'
p1891
sg13
I9659538
sg14
(dp1892
g18
I99999999
ssg19
(dp1893
g21
F1.0
sg9
F1.0
sg10
F1.0
sg24
F1.0
sg22
F1.0
ssg27
(dp1894
g21
I4
sg9
I9
sg10
I15
sg24
I2
sg22
I6
ssa(dp1895
g7
(dp1896
g9
I4
sg10
I15
ssg11
S'src.0.(1,2,3).dst'
p1897
sg13
I5877264
sg14
(dp1898
g18
I99999999
ssg19
(dp1899
g9
F1.0
sg10
F1.0
sg21
F1.0
sg22
F1.0
sg23
F1.0
sg24
F1.0
ssg27
(dp1900
g9
I4
sg10
I15
sg21
I5
sg22
I0
sg23
I2
sg24
I3
ssa(dp1901
g7
(dp1902
g9
I11
sg10
I15
ssg11
S'src.0.(1,2,3).4.5.dst'
p1903
sg13
I5154285
sg14
(dp1904
g18
I99999999
ssg19
(dp1905
g9
F1.0
sg10
F1.0
sg21
F1.0
sg22
F1.0
sg23
F1.0
sg24
F1.0
sg25
F1.0
sg26
F1.0
ssg27
(dp1906
g9
I11
sg10
I15
sg21
I4
sg22
I5
sg23
I1
sg24
I3
sg25
I2
sg26
I6
ssa(dp1907
g7
(dp1908
g9
I15
sg10
I17
ssg11
S'src.0.(1,2).dst'
p1909
sg13
I7709755
sg14
(dp1910
g18
I99999999
ssg19
(dp1911
g21
F1.0
sg9
F1.0
sg10
F1.0
sg24
F1.0
sg22
F1.0
ssg27
(dp1912
g21
I5
sg9
I15
sg10
I17
sg24
I2
sg22
I3
ssa(dp1913
g7
(dp1914
g9
I9
sg10
I15
ssg11
S'src.0.(1,2,3).4.dst'
p1915
sg13
I7455870
sg14
(dp1916
g18
I99999999
ssg19
(dp1917
g9
F1.0
sg10
F1.0
sg21
F1.0
sg22
F1.0
sg23
F1.0
sg24
F1.0
sg26
F1.0
ssg27
(dp1918
g9
I9
sg10
I15
sg21
I2
sg22
I4
sg23
I0
sg24
I1
sg26
I5
ssa(dp1919
g7
(dp1920
g9
I14
sg10
I20
ssg11
S'src.0.(1,2,3).4.dst'
p1921
sg13
I4747554
sg14
(dp1922
g18
I99999999
ssg19
(dp1923
g9
F1.0
sg10
F1.0
sg21
F1.0
sg22
F1.0
sg23
F1.0
sg24
F1.0
sg26
F1.0
ssg27
(dp1924
g9
I14
sg10
I20
sg21
I3
sg22
I4
sg23
I6
sg24
I2
sg26
I5
ssa(dp1925
g7
(dp1926
g9
I13
sg10
I14
ssg11
S'src.0.(1,2,3).4.5.dst'
p1927
sg13
I948896
sg14
(dp1928
g18
I99999999
ssg19
(dp1929
g9
F1.0
sg10
F1.0
sg21
F1.0
sg22
F1.0
sg23
F1.0
sg24
F1.0
sg25
F1.0
sg26
F1.0
ssg27
(dp1930
g9
I13
sg10
I14
sg21
I6
sg22
I5
sg23
I1
sg24
I4
sg25
I0
sg26
I3
ssa(dp1931
g7
(dp1932
g9
I15
sg10
I17
ssg11
S'src.0.(1,2).dst'
p1933
sg13
I7709755
sg14
(dp1934
g18
I99999999
ssg19
(dp1935
g21
F1.0
sg9
F1.0
sg10
F1.0
sg24
F1.0
sg22
F1.0
ssg27
(dp1936
g21
I5
sg9
I15
sg10
I17
sg24
I2
sg22
I3
ssa(dp1937
g7
(dp1938
g9
I10
sg10
I15
ssg11
S'src.0.(1,2,3).4.dst'
p1939
sg13
I4442472
sg14
(dp1940
g18
I99999999
ssg19
(dp1941
g9
F1.0
sg10
F1.0
sg21
F1.0
sg22
F1.0
sg23
F1.0
sg24
F1.0
sg26
F1.0
ssg27
(dp1942
g9
I10
sg10
I15
sg21
I1
sg22
I3
sg23
I4
sg24
I6
sg26
I0
ssa(dp1943
g7
(dp1944
g9
I14
sg10
I16
ssg11
S'src.0.(1,2).dst'
p1945
sg13
I1934551
sg14
(dp1946
g18
I99999999
ssg19
(dp1947
g21
F1.0
sg9
F1.0
sg10
F1.0
sg24
F1.0
sg22
F1.0
ssg27
(dp1948
g21
I6
sg9
I14
sg10
I16
sg24
I0
sg22
I3
ssa(dp1949
g7
(dp1950
g9
I10
sg10
I17
ssg11
S'src.0.(1,2).dst'
p1951
sg13
I8595607
sg14
(dp1952
g18
I99999999
ssg19
(dp1953
g21
F1.0
sg9
F1.0
sg10
F1.0
sg24
F1.0
sg22
F1.0
ssg27
(dp1954
g21
I4
sg9
I10
sg10
I17
sg24
I3
sg22
I0
ssa(dp1955
g7
(dp1956
g9
I11
sg10
I13
ssg11
S'src.0.(1,2).dst'
p1957
sg13
I4079420
sg14
(dp1958
g18
I99999999
ssg19
(dp1959
g21
F1.0
sg9
F1.0
sg10
F1.0
sg24
F1.0
sg22
F1.0
ssg27
(dp1960
g21
I0
sg9
I11
sg10
I13
sg24
I5
sg22
I3
ssa(dp1961
g7
(dp1962
g9
I8
sg10
I15
ssg11
S'src.0.(1,2,3).4.5.dst'
p1963
sg13
I7031232
sg14
(dp1964
g18
I99999999
ssg19
(dp1965
g9
F1.0
sg10
F1.0
sg21
F1.0
sg22
F1.0
sg23
F1.0
sg24
F1.0
sg25
F1.0
sg26
F1.0
ssg27
(dp1966
g9
I8
sg10
I15
sg21
I3
sg22
I4
sg23
I6
sg24
I2
sg25
I5
sg26
I1
ssa(dp1967
g7
(dp1968
g9
I9
sg10
I16
ssg11
S'src.0.(1,2,3).4.5.dst'
p1969
sg13
I818198
sg14
(dp1970
g18
I99999999
ssg19
(dp1971
g9
F1.0
sg10
F1.0
sg21
F1.0
sg22
F1.0
sg23
F1.0
sg24
F1.0
sg25
F1.0
sg26
F1.0
ssg27
(dp1972
g9
I9
sg10
I16
sg21
I6
sg22
I4
sg23
I1
sg24
I2
sg25
I5
sg26
I3
ssa(dp1973
g7
(dp1974
g9
I7
sg10
I19
ssg11
S'src.0.(1,2).dst'
p1975
sg13
I2334233
sg14
(dp1976
g18
I99999999
ssg19
(dp1977
g21
F1.0
sg9
F1.0
sg10
F1.0
sg24
F1.0
sg22
F1.0
ssg27
(dp1978
g21
I4
sg9
I7
sg10
I19
sg24
I5
sg22
I6
ssa(dp1979
g7
(dp1980
g9
I10
sg10
I15
ssg11
S'src.0.(1,2,3).4.dst'
p1981
sg13
I4442472
sg14
(dp1982
g18
I99999999
ssg19
(dp1983
g9
F1.0
sg10
F1.0
sg21
F1.0
sg22
F1.0
sg23
F1.0
sg24
F1.0
sg26
F1.0
ssg27
(dp1984
g9
I10
sg10
I15
sg21
I1
sg22
I3
sg23
I4
sg24
I6
sg26
I0
ssa(dp1985
g7
(dp1986
g9
I6
sg10
I15
ssg11
S'src.0.(1,2,3).dst'
p1987
sg13
I5711147
sg14
(dp1988
g18
I99999999
ssg19
(dp1989
g9
F1.0
sg10
F1.0
sg21
F1.0
sg22
F1.0
sg23
F1.0
sg24
F1.0
ssg27
(dp1990
g9
I6
sg10
I15
sg21
I3
sg22
I5
sg23
I6
sg24
I0
ssa(dp1991
g7
(dp1992
g9
I15
sg10
I19
ssg11
S'src.0.(1,2,3).4.5.dst'
p1993
sg13
I874899
sg14
(dp1994
g18
I99999999
ssg19
(dp1995
g9
F1.0
sg10
F1.0
sg21
F1.0
sg22
F1.0
sg23
F1.0
sg24
F1.0
sg25
F1.0
sg26
F1.0
ssg27
(dp1996
g9
I15
sg10
I19
sg21
I0
sg22
I5
sg23
I2
sg24
I6
sg25
I3
sg26
I1
ssa(dp1997
g7
(dp1998
g9
I14
sg10
I19
ssg11
S'src.0.(1,2).dst'
p1999
sg13
I4449206
sg14
(dp2000
g18
I99999999
ssg19
(dp2001
g21
F1.0
sg9
F1.0
sg10
F1.0
sg24
F1.0
sg22
F1.0
ssg27
(dp2002
g21
I0
sg9
I14
sg10
I19
sg24
I2
sg22
I5
ssa(dp2003
g7
(dp2004
g9
I13
sg10
I15
ssg11
S'src.0.(1,2,3).4.dst'
p2005
sg13
I3382071
sg14
(dp2006
g18
I99999999
ssg19
(dp2007
g9
F1.0
sg10
F1.0
sg21
F1.0
sg22
F1.0
sg23
F1.0
sg24
F1.0
sg26
F1.0
ssg27
(dp2008
g9
I13
sg10
I15
sg21
I3
sg22
I1
sg23
I2
sg24
I0
sg26
I4
ssa(dp2009
g7
(dp2010
g9
I16
sg10
I17
ssg11
S'src.0.(1,2).dst'
p2011
sg13
I894974
sg14
(dp2012
g18
I99999999
ssg19
(dp2013
g21
F1.0
sg9
F1.0
sg10
F1.0
sg24
F1.0
sg22
F1.0
ssg27
(dp2014
g21
I5
sg9
I16
sg10
I17
sg24
I2
sg22
I1
ssa(dp2015
g7
(dp2016
g9
I1
sg10
I15
ssg11
S'src.0.(1,2,3).dst'
p2017
sg13
I15536635
sg14
(dp2018
g18
I99999999
ssg19
(dp2019
g9
F1.0
sg10
F1.0
sg21
F1.0
sg22
F1.0
sg23
F1.0
sg24
F1.0
ssg27
(dp2020
g9
I1
sg10
I15
sg21
I4
sg22
I2
sg23
I1
sg24
I3
ssa(dp2021
g7
(dp2022
g9
I5
sg10
I15
ssg11
S'src.0.(1,2).dst'
p2023
sg13
I4393013
sg14
(dp2024
g18
I99999999
ssg19
(dp2025
g21
F1.0
sg9
F1.0
sg10
F1.0
sg24
F1.0
sg22
F1.0
ssg27
(dp2026
g21
I2
sg9
I5
sg10
I15
sg24
I6
sg22
I4
ssa(dp2027
g7
(dp2028
g9
I15
sg10
I19
ssg11
S'src.0.(1,2,3).4.5.dst'
p2029
sg13
I14206809
sg14
(dp2030
g18
I99999999
ssg19
(dp2031
g9
F1.0
sg10
F1.0
sg21
F1.0
sg22
F1.0
sg23
F1.0
sg24
F1.0
sg25
F1.0
sg26
F1.0
ssg27
(dp2032
g9
I15
sg10
I19
sg21
I0
sg22
I3
sg23
I5
sg24
I6
sg25
I2
sg26
I1
ssa(dp2033
g7
(dp2034
g9
I10
sg10
I13
ssg11
S'src.0.(1,2,3).dst'
p2035
sg13
I31740447
sg14
(dp2036
g18
I99999999
ssg19
(dp2037
g9
F1.0
sg10
F1.0
sg21
F1.0
sg22
F1.0
sg23
F1.0
sg24
F1.0
ssg27
(dp2038
g9
I10
sg10
I13
sg21
I3
sg22
I6
sg23
I5
sg24
I4
ssa(dp2039
g7
(dp2040
g9
I4
sg10
I15
ssg11
S'src.0.(1,2,3).4.dst'
p2041
sg13
I5285815
sg14
(dp2042
g18
I99999999
ssg19
(dp2043
g9
F1.0
sg10
F1.0
sg21
F1.0
sg22
F1.0
sg23
F1.0
sg24
F1.0
sg26
F1.0
ssg27
(dp2044
g9
I4
sg10
I15
sg21
I3
sg22
I5
sg23
I1
sg24
I4
sg26
I6
ssa(dp2045
g7
(dp2046
g9
I11
sg10
I14
ssg11
S'src.0.(1,2).dst'
p2047
sg13
I1419307
sg14
(dp2048
g18
I99999999
ssg19
(dp2049
g21
F1.0
sg9
F1.0
sg10
F1.0
sg24
F1.0
sg22
F1.0
ssg27
(dp2050
g21
I6
sg9
I11
sg10
I14
sg24
I3
sg22
I4
ssa(dp2051
g7
(dp2052
g9
I1
sg10
I15
ssg11
S'src.0.(1,2).dst'
p2053
sg13
I2316338
sg14
(dp2054
g18
I99999999
ssg19
(dp2055
g21
F1.0
sg9
F1.0
sg10
F1.0
sg24
F1.0
sg22
F1.0
ssg27
(dp2056
g21
I3
sg9
I1
sg10
I15
sg24
I2
sg22
I6
ssa(dp2057
g7
(dp2058
g9
I4
sg10
I8
ssg11
S'src.0.(1,2,3).4.dst'
p2059
sg13
I949227
sg14
(dp2060
g18
I99999999
ssg19
(dp2061
g9
F1.0
sg10
F1.0
sg21
F1.0
sg22
F1.0
sg23
F1.0
sg24
F1.0
sg26
F1.0
ssg27
(dp2062
g9
I4
sg10
I8
sg21
I0
sg22
I4
sg23
I6
sg24
I3
sg26
I1
ssa(dp2063
g7
(dp2064
g9
I9
sg10
I12
ssg11
S'src.0.(1,2).dst'
p2065
sg13
I1157334
sg14
(dp2066
g18
I99999999
ssg19
(dp2067
g21
F1.0
sg9
F1.0
sg10
F1.0
sg24
F1.0
sg22
F1.0
ssg27
(dp2068
g21
I6
sg9
I9
sg10
I12
sg24
I0
sg22
I4
ssa(dp2069
g7
(dp2070
g9
I3
sg10
I15
ssg11
S'src.0.(1,2,3).dst'
p2071
sg13
I1717322
sg14
(dp2072
g18
I99999999
ssg19
(dp2073
g9
F1.0
sg10
F1.0
sg21
F1.0
sg22
F1.0
sg23
F1.0
sg24
F1.0
ssg27
(dp2074
g9
I3
sg10
I15
sg21
I4
sg22
I3
sg23
I2
sg24
I0
ssa(dp2075
g7
(dp2076
g9
I14
sg10
I19
ssg11
S'src.0.(1,2,3).dst'
p2077
sg13
I7353196
sg14
(dp2078
g18
I99999999
ssg19
(dp2079
g9
F1.0
sg10
F1.0
sg21
F1.0
sg22
F1.0
sg23
F1.0
sg24
F1.0
ssg27
(dp2080
g9
I14
sg10
I19
sg21
I1
sg22
I0
sg23
I5
sg24
I4
ssa(dp2081
g7
(dp2082
g9
I14
sg10
I17
ssg11
S'src.0.(1,2,3).4.5.dst'
p2083
sg13
I6732345
sg14
(dp2084
g18
I99999999
ssg19
(dp2085
g9
F1.0
sg10
F1.0
sg21
F1.0
sg22
F1.0
sg23
F1.0
sg24
F1.0
sg25
F1.0
sg26
F1.0
ssg27
(dp2086
g9
I14
sg10
I17
sg21
I3
sg22
I2
sg23
I6
sg24
I1
sg25
I0
sg26
I5
ssa(dp2087
g7
(dp2088
g9
I6
sg10
I7
ssg11
S'src.0.(1,2,3).4.dst'
p2089
sg13
I51468610
sg14
(dp2090
g18
I99999999
ssg19
(dp2091
g9
F1.0
sg10
F1.0
sg21
F1.0
sg22
F1.0
sg23
F1.0
sg24
F1.0
sg26
F1.0
ssg27
(dp2092
g9
I6
sg10
I7
sg21
I4
sg22
I2
sg23
I0
sg24
I5
sg26
I6
ssa(dp2093
g7
(dp2094
g9
I10
sg10
I14
ssg11
S'src.0.(1,2,3).4.dst'
p2095
sg13
I979170
sg14
(dp2096
g18
I99999999
ssg19
(dp2097
g9
F1.0
sg10
F1.0
sg21
F1.0
sg22
F1.0
sg23
F1.0
sg24
F1.0
sg26
F1.0
ssg27
(dp2098
g9
I10
sg10
I14
sg21
I5
sg22
I0
sg23
I2
sg24
I1
sg26
I3
ssa(dp2099
g7
(dp2100
g9
I15
sg10
I16
ssg11
S'src.0.(1,2,3).4.dst'
p2101
sg13
I9028917
sg14
(dp2102
g18
I99999999
ssg19
(dp2103
g9
F1.0
sg10
F1.0
sg21
F1.0
sg22
F1.0
sg23
F1.0
sg24
F1.0
sg26
F1.0
ssg27
(dp2104
g9
I15
sg10
I16
sg21
I4
sg22
I2
sg23
I6
sg24
I0
sg26
I1
ssa(dp2105
g7
(dp2106
g9
I6
sg10
I13
ssg11
S'src.0.(1,2,3).4.dst'
p2107
sg13
I2181532
sg14
(dp2108
g18
I99999999
ssg19
(dp2109
g9
F1.0
sg10
F1.0
sg21
F1.0
sg22
F1.0
sg23
F1.0
sg24
F1.0
sg26
F1.0
ssg27
(dp2110
g9
I6
sg10
I13
sg21
I5
sg22
I4
sg23
I0
sg24
I2
sg26
I1
ssa(dp2111
g7
(dp2112
g9
I11
sg10
I16
ssg11
S'src.0.(1,2,3).dst'
p2113
sg13
I1719433
sg14
(dp2114
g18
I99999999
ssg19
(dp2115
g9
F1.0
sg10
F1.0
sg21
F1.0
sg22
F1.0
sg23
F1.0
sg24
F1.0
ssg27
(dp2116
g9
I11
sg10
I16
sg21
I0
sg22
I2
sg23
I1
sg24
I3
ssa(dp2117
g7
(dp2118
g9
I6
sg10
I8
ssg11
S'src.0.(1,2,3).dst'
p2119
sg13
I9146089
sg14
(dp2120
g18
I99999999
ssg19
(dp2121
g9
F1.0
sg10
F1.0
sg21
F1.0
sg22
F1.0
sg23
F1.0
sg24
F1.0
ssg27
(dp2122
g9
I6
sg10
I8
sg21
I1
sg22
I6
sg23
I5
sg24
I3
ssa(dp2123
g7
(dp2124
g9
I11
sg10
I14
ssg11
S'src.0.(1,2).dst'
p2125
sg13
I1284694
sg14
(dp2126
g18
I99999999
ssg19
(dp2127
g21
F1.0
sg9
F1.0
sg10
F1.0
sg24
F1.0
sg22
F1.0
ssg27
(dp2128
g21
I1
sg9
I11
sg10
I14
sg24
I4
sg22
I0
ssa(dp2129
g7
(dp2130
g9
I13
sg10
I15
ssg11
S'src.0.(1,2,3).4.5.dst'
p2131
sg13
I837621
sg14
(dp2132
g18
I99999999
ssg19
(dp2133
g9
F1.0
sg10
F1.0
sg21
F1.0
sg22
F1.0
sg23
F1.0
sg24
F1.0
sg25
F1.0
sg26
F1.0
ssg27
(dp2134
g9
I13
sg10
I15
sg21
I4
sg22
I5
sg23
I6
sg24
I2
sg25
I1
sg26
I3
ssa(dp2135
g7
(dp2136
g9
I12
sg10
I16
ssg11
S'src.0.(1,2).dst'
p2137
sg13
I1490118
sg14
(dp2138
g18
I99999999
ssg19
(dp2139
g21
F1.0
sg9
F1.0
sg10
F1.0
sg24
F1.0
sg22
F1.0
ssg27
(dp2140
g21
I0
sg9
I12
sg10
I16
sg24
I2
sg22
I5
ssa(dp2141
g7
(dp2142
g9
I9
sg10
I12
ssg11
S'src.0.(1,2).dst'
p2143
sg13
I1157334
sg14
(dp2144
g18
I99999999
ssg19
(dp2145
g21
F1.0
sg9
F1.0
sg10
F1.0
sg24
F1.0
sg22
F1.0
ssg27
(dp2146
g21
I6
sg9
I9
sg10
I12
sg24
I0
sg22
I4
ssa(dp2147
g7
(dp2148
g9
I14
sg10
I16
ssg11
S'src.0.(1,2).dst'
p2149
sg13
I1631183
sg14
(dp2150
g18
I99999999
ssg19
(dp2151
g21
F1.0
sg9
F1.0
sg10
F1.0
sg24
F1.0
sg22
F1.0
ssg27
(dp2152
g21
I2
sg9
I14
sg10
I16
sg24
I4
sg22
I3
ssa(dp2153
g7
(dp2154
g9
I6
sg10
I19
ssg11
S'src.0.(1,2,3).4.5.dst'
p2155
sg13
I10185624
sg14
(dp2156
g18
I99999999
ssg19
(dp2157
g9
F1.0
sg10
F1.0
sg21
F1.0
sg22
F1.0
sg23
F1.0
sg24
F1.0
sg25
F1.0
sg26
F1.0
ssg27
(dp2158
g9
I6
sg10
I19
sg21
I4
sg22
I6
sg23
I3
sg24
I0
sg25
I1
sg26
I5
ssa(dp2159
g7
(dp2160
g9
I11
sg10
I20
ssg11
S'src.0.(1,2,3).4.5.dst'
p2161
sg13
I1170541
sg14
(dp2162
g18
I99999999
ssg19
(dp2163
g9
F1.0
sg10
F1.0
sg21
F1.0
sg22
F1.0
sg23
F1.0
sg24
F1.0
sg25
F1.0
sg26
F1.0
ssg27
(dp2164
g9
I11
sg10
I20
sg21
I4
sg22
I0
sg23
I2
sg24
I1
sg25
I6
sg26
I5
ssa(dp2165
g7
(dp2166
g9
I14
sg10
I16
ssg11
S'src.0.(1,2).dst'
p2167
sg13
I1934551
sg14
(dp2168
g18
I99999999
ssg19
(dp2169
g21
F1.0
sg9
F1.0
sg10
F1.0
sg24
F1.0
sg22
F1.0
ssg27
(dp2170
g21
I6
sg9
I14
sg10
I16
sg24
I0
sg22
I3
ssa(dp2171
g7
(dp2172
g9
I12
sg10
I14
ssg11
S'src.0.(1,2,3).4.5.dst'
p2173
sg13
I1440375
sg14
(dp2174
g18
I99999999
ssg19
(dp2175
g9
F1.0
sg10
F1.0
sg21
F1.0
sg22
F1.0
sg23
F1.0
sg24
F1.0
sg25
F1.0
sg26
F1.0
ssg27
(dp2176
g9
I12
sg10
I14
sg21
I5
sg22
I0
sg23
I4
sg24
I1
sg25
I3
sg26
I2
ssa(dp2177
g7
(dp2178
g9
I14
sg10
I17
ssg11
S'src.0.(1,2,3).4.5.dst'
p2179
sg13
I4029393
sg14
(dp2180
g18
I99999999
ssg19
(dp2181
g9
F1.0
sg10
F1.0
sg21
F1.0
sg22
F1.0
sg23
F1.0
sg24
F1.0
sg25
F1.0
sg26
F1.0
ssg27
(dp2182
g9
I14
sg10
I17
sg21
I0
sg22
I3
sg23
I6
sg24
I2
sg25
I1
sg26
I5
ssa(dp2183
g7
(dp2184
g9
I6
sg10
I19
ssg11
S'src.0.(1,2).dst'
p2185
sg13
I3864387
sg14
(dp2186
g18
I99999999
ssg19
(dp2187
g21
F1.0
sg9
F1.0
sg10
F1.0
sg24
F1.0
sg22
F1.0
ssg27
(dp2188
g21
I4
sg9
I6
sg10
I19
sg24
I5
sg22
I2
ssa(dp2189
g7
(dp2190
g9
I6
sg10
I13
ssg11
S'src.0.(1,2,3).4.dst'
p2191
sg13
I10313775
sg14
(dp2192
g18
I99999999
ssg19
(dp2193
g9
F1.0
sg10
F1.0
sg21
F1.0
sg22
F1.0
sg23
F1.0
sg24
F1.0
sg26
F1.0
ssg27
(dp2194
g9
I6
sg10
I13
sg21
I0
sg22
I4
sg23
I1
sg24
I5
sg26
I2
ssa(dp2195
g7
(dp2196
g9
I4
sg10
I6
ssg11
S'src.0.(1,2,3).dst'
p2197
sg13
I1509810
sg14
(dp2198
g18
I99999999
ssg19
(dp2199
g9
F1.0
sg10
F1.0
sg21
F1.0
sg22
F1.0
sg23
F1.0
sg24
F1.0
ssg27
(dp2200
g9
I4
sg10
I6
sg21
I1
sg22
I4
sg23
I6
sg24
I3
ssa(dp2201
g7
(dp2202
g9
I15
sg10
I17
ssg11
S'src.0.(1,2).dst'
p2203
sg13
I7709755
sg14
(dp2204
g18
I99999999
ssg19
(dp2205
g21
F1.0
sg9
F1.0
sg10
F1.0
sg24
F1.0
sg22
F1.0
ssg27
(dp2206
g21
I5
sg9
I15
sg10
I17
sg24
I2
sg22
I3
ssa(dp2207
g7
(dp2208
g9
I9
sg10
I14
ssg11
S'src.0.(1,2).dst'
p2209
sg13
I1468262
sg14
(dp2210
g18
I99999999
ssg19
(dp2211
g21
F1.0
sg9
F1.0
sg10
F1.0
sg24
F1.0
sg22
F1.0
ssg27
(dp2212
g21
I5
sg9
I9
sg10
I14
sg24
I4
sg22
I0
ssa(dp2213
g7
(dp2214
g9
I11
sg10
I16
ssg11
S'src.0.(1,2,3).4.dst'
p2215
sg13
I1219329
sg14
(dp2216
g18
I99999999
ssg19
(dp2217
g9
F1.0
sg10
F1.0
sg21
F1.0
sg22
F1.0
sg23
F1.0
sg24
F1.0
sg26
F1.0
ssg27
(dp2218
g9
I11
sg10
I16
sg21
I2
sg22
I4
sg23
I0
sg24
I3
sg26
I1
ssa(dp2219
g7
(dp2220
g9
I13
sg10
I15
ssg11
S'src.0.(1,2,3).dst'
p2221
sg13
I5019062
sg14
(dp2222
g18
I99999999
ssg19
(dp2223
g9
F1.0
sg10
F1.0
sg21
F1.0
sg22
F1.0
sg23
F1.0
sg24
F1.0
ssg27
(dp2224
g9
I13
sg10
I15
sg21
I0
sg22
I3
sg23
I4
sg24
I5
ssa(dp2225
g7
(dp2226
g9
I5
sg10
I15
ssg11
S'src.0.(1,2,3).dst'
p2227
sg13
I4350510
sg14
(dp2228
g18
I99999999
ssg19
(dp2229
g9
F1.0
sg10
F1.0
sg21
F1.0
sg22
F1.0
sg23
F1.0
sg24
F1.0
ssg27
(dp2230
g9
I5
sg10
I15
sg21
I0
sg22
I3
sg23
I6
sg24
I2
ssa(dp2231
g7
(dp2232
g9
I10
sg10
I20
ssg11
S'src.0.(1,2,3).4.dst'
p2233
sg13
I4609189
sg14
(dp2234
g18
I99999999
ssg19
(dp2235
g9
F1.0
sg10
F1.0
sg21
F1.0
sg22
F1.0
sg23
F1.0
sg24
F1.0
sg26
F1.0
ssg27
(dp2236
g9
I10
sg10
I20
sg21
I3
sg22
I6
sg23
I2
sg24
I4
sg26
I5
ssa(dp2237
g7
(dp2238
g9
I15
sg10
I20
ssg11
S'src.0.(1,2,3).dst'
p2239
sg13
I18742960
sg14
(dp2240
g18
I99999999
ssg19
(dp2241
g9
F1.0
sg10
F1.0
sg21
F1.0
sg22
F1.0
sg23
F1.0
sg24
F1.0
ssg27
(dp2242
g9
I15
sg10
I20
sg21
I3
sg22
I5
sg23
I1
sg24
I2
ssa(dp2243
g7
(dp2244
g9
I6
sg10
I16
ssg11
S'src.0.(1,2).dst'
p2245
sg13
I2043172
sg14
(dp2246
g18
I99999999
ssg19
(dp2247
g21
F1.0
sg9
F1.0
sg10
F1.0
sg24
F1.0
sg22
F1.0
ssg27
(dp2248
g21
I5
sg9
I6
sg10
I16
sg24
I6
sg22
I3
ssa(dp2249
g7
(dp2250
g9
I14
sg10
I20
ssg11
S'src.0.(1,2,3).4.dst'
p2251
sg13
I4747554
sg14
(dp2252
g18
I99999999
ssg19
(dp2253
g9
F1.0
sg10
F1.0
sg21
F1.0
sg22
F1.0
sg23
F1.0
sg24
F1.0
sg26
F1.0
ssg27
(dp2254
g9
I14
sg10
I20
sg21
I3
sg22
I4
sg23
I6
sg24
I2
sg26
I5
ssa(dp2255
g7
(dp2256
g9
I6
sg10
I15
ssg11
S'src.0.(1,2,3).4.dst'
p2257
sg13
I8273765
sg14
(dp2258
g18
I99999999
ssg19
(dp2259
g9
F1.0
sg10
F1.0
sg21
F1.0
sg22
F1.0
sg23
F1.0
sg24
F1.0
sg26
F1.0
ssg27
(dp2260
g9
I6
sg10
I15
sg21
I3
sg22
I6
sg23
I4
sg24
I0
sg26
I1
ssa(dp2261
g7
(dp2262
g9
I7
sg10
I14
ssg11
S'src.0.(1,2,3).dst'
p2263
sg13
I874658
sg14
(dp2264
g18
I99999999
ssg19
(dp2265
g9
F1.0
sg10
F1.0
sg21
F1.0
sg22
F1.0
sg23
F1.0
sg24
F1.0
ssg27
(dp2266
g9
I7
sg10
I14
sg21
I0
sg22
I5
sg23
I4
sg24
I6
ssa(dp2267
g7
(dp2268
g9
I3
sg10
I15
ssg11
S'src.0.(1,2).dst'
p2269
sg13
I1168878
sg14
(dp2270
g18
I99999999
ssg19
(dp2271
g21
F1.0
sg9
F1.0
sg10
F1.0
sg24
F1.0
sg22
F1.0
ssg27
(dp2272
g21
I3
sg9
I3
sg10
I15
sg24
I4
sg22
I6
ssa(dp2273
g7
(dp2274
g9
I11
sg10
I19
ssg11
S'src.0.(1,2,3).4.dst'
p2275
sg13
I1530665
sg14
(dp2276
g18
I99999999
ssg19
(dp2277
g9
F1.0
sg10
F1.0
sg21
F1.0
sg22
F1.0
sg23
F1.0
sg24
F1.0
sg26
F1.0
ssg27
(dp2278
g9
I11
sg10
I19
sg21
I3
sg22
I2
sg23
I4
sg24
I5
sg26
I6
ssa(dp2279
g7
(dp2280
g9
I11
sg10
I16
ssg11
S'src.0.(1,2,3).4.5.dst'
p2281
sg13
I2187347
sg14
(dp2282
g18
I99999999
ssg19
(dp2283
g9
F1.0
sg10
F1.0
sg21
F1.0
sg22
F1.0
sg23
F1.0
sg24
F1.0
sg25
F1.0
sg26
F1.0
ssg27
(dp2284
g9
I11
sg10
I16
sg21
I5
sg22
I4
sg23
I2
sg24
I1
sg25
I3
sg26
I0
ssa(dp2285
g7
(dp2286
g9
I1
sg10
I7
ssg11
S'src.0.(1,2,3).4.dst'
p2287
sg13
I3388428
sg14
(dp2288
g18
I99999999
ssg19
(dp2289
g9
F1.0
sg10
F1.0
sg21
F1.0
sg22
F1.0
sg23
F1.0
sg24
F1.0
sg26
F1.0
ssg27
(dp2290
g9
I1
sg10
I7
sg21
I5
sg22
I1
sg23
I3
sg24
I2
sg26
I0
ssa(dp2291
g7
(dp2292
g9
I11
sg10
I14
ssg11
S'src.0.(1,2).dst'
p2293
sg13
I3165109
sg14
(dp2294
g18
I99999999
ssg19
(dp2295
g21
F1.0
sg9
F1.0
sg10
F1.0
sg24
F1.0
sg22
F1.0
ssg27
(dp2296
g21
I4
sg9
I11
sg10
I14
sg24
I6
sg22
I3
ssa(dp2297
g7
(dp2298
g9
I6
sg10
I13
ssg11
S'src.0.(1,2,3).4.5.dst'
p2299
sg13
I1082273
sg14
(dp2300
g18
I99999999
ssg19
(dp2301
g9
F1.0
sg10
F1.0
sg21
F1.0
sg22
F1.0
sg23
F1.0
sg24
F1.0
sg25
F1.0
sg26
F1.0
ssg27
(dp2302
g9
I6
sg10
I13
sg21
I5
sg22
I3
sg23
I4
sg24
I1
sg25
I2
sg26
I0
ssa(dp2303
g7
(dp2304
g9
I15
sg10
I17
ssg11
S'src.0.(1,2,3).4.5.dst'
p2305
sg13
I3502944
sg14
(dp2306
g18
I99999999
ssg19
(dp2307
g9
F1.0
sg10
F1.0
sg21
F1.0
sg22
F1.0
sg23
F1.0
sg24
F1.0
sg25
F1.0
sg26
F1.0
ssg27
(dp2308
g9
I15
sg10
I17
sg21
I6
sg22
I0
sg23
I4
sg24
I2
sg25
I3
sg26
I1
ssa(dp2309
g7
(dp2310
g9
I14
sg10
I16
ssg11
S'src.0.(1,2).dst'
p2311
sg13
I3644755
sg14
(dp2312
g18
I99999999
ssg19
(dp2313
g21
F1.0
sg9
F1.0
sg10
F1.0
sg24
F1.0
sg22
F1.0
ssg27
(dp2314
g21
I3
sg9
I14
sg10
I16
sg24
I1
sg22
I4
ssa(dp2315
g7
(dp2316
g9
I6
sg10
I11
ssg11
S'src.0.(1,2,3).4.5.dst'
p2317
sg13
I4666308
sg14
(dp2318
g18
I99999999
ssg19
(dp2319
g9
F1.0
sg10
F1.0
sg21
F1.0
sg22
F1.0
sg23
F1.0
sg24
F1.0
sg25
F1.0
sg26
F1.0
ssg27
(dp2320
g9
I6
sg10
I11
sg21
I3
sg22
I5
sg23
I6
sg24
I2
sg25
I4
sg26
I0
ssa(dp2321
g7
(dp2322
g9
I8
sg10
I15
ssg11
S'src.0.(1,2,3).4.dst'
p2323
sg13
I10006275
sg14
(dp2324
g18
I99999999
ssg19
(dp2325
g9
F1.0
sg10
F1.0
sg21
F1.0
sg22
F1.0
sg23
F1.0
sg24
F1.0
sg26
F1.0
ssg27
(dp2326
g9
I8
sg10
I15
sg21
I5
sg22
I6
sg23
I2
sg24
I4
sg26
I0
ssa(dp2327
g7
(dp2328
g9
I10
sg10
I20
ssg11
S'src.0.(1,2,3).4.dst'
p2329
sg13
I1762123
sg14
(dp2330
g18
I99999999
ssg19
(dp2331
g9
F1.0
sg10
F1.0
sg21
F1.0
sg22
F1.0
sg23
F1.0
sg24
F1.0
sg26
F1.0
ssg27
(dp2332
g9
I10
sg10
I20
sg21
I5
sg22
I2
sg23
I0
sg24
I6
sg26
I4
ssa(dp2333
g7
(dp2334
g9
I6
sg10
I13
ssg11
S'src.0.(1,2,3).4.dst'
p2335
sg13
I10313775
sg14
(dp2336
g18
I99999999
ssg19
(dp2337
g9
F1.0
sg10
F1.0
sg21
F1.0
sg22
F1.0
sg23
F1.0
sg24
F1.0
sg26
F1.0
ssg27
(dp2338
g9
I6
sg10
I13
sg21
I0
sg22
I4
sg23
I1
sg24
I5
sg26
I2
ssa(dp2339
g7
(dp2340
g9
I13
sg10
I15
ssg11
S'src.0.(1,2).dst'
p2341
sg13
I1617533
sg14
(dp2342
g18
I99999999
ssg19
(dp2343
g21
F1.0
sg9
F1.0
sg10
F1.0
sg24
F1.0
sg22
F1.0
ssg27
(dp2344
g21
I2
sg9
I13
sg10
I15
sg24
I4
sg22
I5
ssa(dp2345
g7
(dp2346
g9
I7
sg10
I16
ssg11
S'src.0.(1,2).dst'
p2347
sg13
I1377177
sg14
(dp2348
g18
I99999999
ssg19
(dp2349
g21
F1.0
sg9
F1.0
sg10
F1.0
sg24
F1.0
sg22
F1.0
ssg27
(dp2350
g21
I6
sg9
I7
sg10
I16
sg24
I0
sg22
I2
ssa(dp2351
g7
(dp2352
g9
I4
sg10
I11
ssg11
S'src.0.(1,2,3).4.dst'
p2353
sg13
I815196
sg14
(dp2354
g18
I99999999
ssg19
(dp2355
g9
F1.0
sg10
F1.0
sg21
F1.0
sg22
F1.0
sg23
F1.0
sg24
F1.0
sg26
F1.0
ssg27
(dp2356
g9
I4
sg10
I11
sg21
I3
sg22
I1
sg23
I6
sg24
I2
sg26
I4
ssa(dp2357
g7
(dp2358
g9
I6
sg10
I8
ssg11
S'src.0.(1,2,3).4.dst'
p2359
sg13
I26334480
sg14
(dp2360
g18
I99999999
ssg19
(dp2361
g9
F1.0
sg10
F1.0
sg21
F1.0
sg22
F1.0
sg23
F1.0
sg24
F1.0
sg26
F1.0
ssg27
(dp2362
g9
I6
sg10
I8
sg21
I0
sg22
I3
sg23
I2
sg24
I1
sg26
I6
ssa(dp2363
g7
(dp2364
g9
I6
sg10
I15
ssg11
S'src.0.(1,2,3).4.dst'
p2365
sg13
I8273765
sg14
(dp2366
g18
I99999999
ssg19
(dp2367
g9
F1.0
sg10
F1.0
sg21
F1.0
sg22
F1.0
sg23
F1.0
sg24
F1.0
sg26
F1.0
ssg27
(dp2368
g9
I6
sg10
I15
sg21
I3
sg22
I6
sg23
I4
sg24
I0
sg26
I1
ssa(dp2369
g7
(dp2370
g9
I14
sg10
I16
ssg11
S'src.0.(1,2).dst'
p2371
sg13
I1631183
sg14
(dp2372
g18
I99999999
ssg19
(dp2373
g21
F1.0
sg9
F1.0
sg10
F1.0
sg24
F1.0
sg22
F1.0
ssg27
(dp2374
g21
I2
sg9
I14
sg10
I16
sg24
I4
sg22
I3
ssa(dp2375
g7
(dp2376
g9
I6
sg10
I14
ssg11
S'src.0.(1,2,3).dst'
p2377
sg13
I2460964
sg14
(dp2378
g18
I99999999
ssg19
(dp2379
g9
F1.0
sg10
F1.0
sg21
F1.0
sg22
F1.0
sg23
F1.0
sg24
F1.0
ssg27
(dp2380
g9
I6
sg10
I14
sg21
I6
sg22
I2
sg23
I4
sg24
I3
ssa(dp2381
g7
(dp2382
g9
I1
sg10
I15
ssg11
S'src.0.(1,2,3).4.5.dst'
p2383
sg13
I4179459
sg14
(dp2384
g18
I99999999
ssg19
(dp2385
g9
F1.0
sg10
F1.0
sg21
F1.0
sg22
F1.0
sg23
F1.0
sg24
F1.0
sg25
F1.0
sg26
F1.0
ssg27
(dp2386
g9
I1
sg10
I15
sg21
I0
sg22
I2
sg23
I3
sg24
I5
sg25
I4
sg26
I1
ssa(dp2387
g7
(dp2388
g9
I3
sg10
I15
ssg11
S'src.0.(1,2,3).dst'
p2389
sg13
I1717322
sg14
(dp2390
g18
I99999999
ssg19
(dp2391
g9
F1.0
sg10
F1.0
sg21
F1.0
sg22
F1.0
sg23
F1.0
sg24
F1.0
ssg27
(dp2392
g9
I3
sg10
I15
sg21
I4
sg22
I3
sg23
I2
sg24
I0
ssa(dp2393
g7
(dp2394
g9
I6
sg10
I16
ssg11
S'src.0.(1,2,3).4.5.dst'
p2395
sg13
I5501332
sg14
(dp2396
g18
I99999999
ssg19
(dp2397
g9
F1.0
sg10
F1.0
sg21
F1.0
sg22
F1.0
sg23
F1.0
sg24
F1.0
sg25
F1.0
sg26
F1.0
ssg27
(dp2398
g9
I6
sg10
I16
sg21
I1
sg22
I4
sg23
I0
sg24
I6
sg25
I2
sg26
I5
ssa(dp2399
g7
(dp2400
g9
I14
sg10
I15
ssg11
S'src.0.(1,2,3).dst'
p2401
sg13
I6863430
sg14
(dp2402
g18
I99999999
ssg19
(dp2403
g9
F1.0
sg10
F1.0
sg21
F1.0
sg22
F1.0
sg23
F1.0
sg24
F1.0
ssg27
(dp2404
g9
I14
sg10
I15
sg21
I3
sg22
I2
sg23
I5
sg24
I0
ssa(dp2405
g7
(dp2406
g9
I11
sg10
I20
ssg11
S'src.0.(1,2,3).dst'
p2407
sg13
I3004715
sg14
(dp2408
g18
I99999999
ssg19
(dp2409
g9
F1.0
sg10
F1.0
sg21
F1.0
sg22
F1.0
sg23
F1.0
sg24
F1.0
ssg27
(dp2410
g9
I11
sg10
I20
sg21
I4
sg22
I6
sg23
I5
sg24
I0
ssa(dp2411
g7
(dp2412
g9
I11
sg10
I20
ssg11
S'src.0.(1,2,3).4.5.dst'
p2413
sg13
I1170541
sg14
(dp2414
g18
I99999999
ssg19
(dp2415
g9
F1.0
sg10
F1.0
sg21
F1.0
sg22
F1.0
sg23
F1.0
sg24
F1.0
sg25
F1.0
sg26
F1.0
ssg27
(dp2416
g9
I11
sg10
I20
sg21
I4
sg22
I0
sg23
I2
sg24
I1
sg25
I6
sg26
I5
ssa(dp2417
g7
(dp2418
g9
I14
sg10
I19
ssg11
S'src.0.(1,2,3).dst'
p2419
sg13
I2770618
sg14
(dp2420
g18
I99999999
ssg19
(dp2421
g9
F1.0
sg10
F1.0
sg21
F1.0
sg22
F1.0
sg23
F1.0
sg24
F1.0
ssg27
(dp2422
g9
I14
sg10
I19
sg21
I2
sg22
I3
sg23
I4
sg24
I1
ssa(dp2423
g7
(dp2424
g9
I13
sg10
I14
ssg11
S'src.0.(1,2,3).4.dst'
p2425
sg13
I815283
sg14
(dp2426
g18
I99999999
ssg19
(dp2427
g9
F1.0
sg10
F1.0
sg21
F1.0
sg22
F1.0
sg23
F1.0
sg24
F1.0
sg26
F1.0
ssg27
(dp2428
g9
I13
sg10
I14
sg21
I5
sg22
I3
sg23
I4
sg24
I1
sg26
I0
ssa(dp2429
g7
(dp2430
g9
I13
sg10
I15
ssg11
S'src.0.(1,2,3).4.5.dst'
p2431
sg13
I837621
sg14
(dp2432
g18
I99999999
ssg19
(dp2433
g9
F1.0
sg10
F1.0
sg21
F1.0
sg22
F1.0
sg23
F1.0
sg24
F1.0
sg25
F1.0
sg26
F1.0
ssg27
(dp2434
g9
I13
sg10
I15
sg21
I4
sg22
I5
sg23
I6
sg24
I2
sg25
I1
sg26
I3
ssa(dp2435
g7
(dp2436
g9
I12
sg10
I14
ssg11
S'src.0.(1,2,3).dst'
p2437
sg13
I1045590
sg14
(dp2438
g18
I99999999
ssg19
(dp2439
g9
F1.0
sg10
F1.0
sg21
F1.0
sg22
F1.0
sg23
F1.0
sg24
F1.0
ssg27
(dp2440
g9
I12
sg10
I14
sg21
I4
sg22
I6
sg23
I3
sg24
I0
ssa(dp2441
g7
(dp2442
g9
I6
sg10
I15
ssg11
S'src.0.(1,2,3).dst'
p2443
sg13
I4116448
sg14
(dp2444
g18
I99999999
ssg19
(dp2445
g9
F1.0
sg10
F1.0
sg21
F1.0
sg22
F1.0
sg23
F1.0
sg24
F1.0
ssg27
(dp2446
g9
I6
sg10
I15
sg21
I0
sg22
I4
sg23
I2
sg24
I1
ssa(dp2447
g7
(dp2448
g9
I14
sg10
I16
ssg11
S'src.0.(1,2).dst'
p2449
sg13
I1934551
sg14
(dp2450
g18
I99999999
ssg19
(dp2451
g21
F1.0
sg9
F1.0
sg10
F1.0
sg24
F1.0
sg22
F1.0
ssg27
(dp2452
g21
I6
sg9
I14
sg10
I16
sg24
I0
sg22
I3
ssa(dp2453
g7
(dp2454
g9
I12
sg10
I15
ssg11
S'src.0.(1,2).dst'
p2455
sg13
I4799916
sg14
(dp2456
g18
I99999999
ssg19
(dp2457
g21
F1.0
sg9
F1.0
sg10
F1.0
sg24
F1.0
sg22
F1.0
ssg27
(dp2458
g21
I5
sg9
I12
sg10
I15
sg24
I6
sg22
I2
ssa(dp2459
g7
(dp2460
g9
I10
sg10
I17
ssg11
S'src.0.(1,2).dst'
p2461
sg13
I17022243
sg14
(dp2462
g18
I99999999
ssg19
(dp2463
g21
F1.0
sg9
F1.0
sg10
F1.0
sg24
F1.0
sg22
F1.0
ssg27
(dp2464
g21
I1
sg9
I10
sg10
I17
sg24
I5
sg22
I4
ssa(dp2465
g7
(dp2466
g9
I6
sg10
I15
ssg11
S'src.0.(1,2,3).dst'
p2467
sg13
I4116448
sg14
(dp2468
g18
I99999999
ssg19
(dp2469
g9
F1.0
sg10
F1.0
sg21
F1.0
sg22
F1.0
sg23
F1.0
sg24
F1.0
ssg27
(dp2470
g9
I6
sg10
I15
sg21
I0
sg22
I4
sg23
I2
sg24
I1
ssa(dp2471
g7
(dp2472
g9
I6
sg10
I8
ssg11
S'src.0.(1,2).dst'
p2473
sg13
I15583120
sg14
(dp2474
g18
I99999999
ssg19
(dp2475
g21
F1.0
sg9
F1.0
sg10
F1.0
sg24
F1.0
sg22
F1.0
ssg27
(dp2476
g21
I6
sg9
I6
sg10
I8
sg24
I5
sg22
I2
ssa(dp2477
g7
(dp2478
g9
I14
sg10
I19
ssg11
S'src.0.(1,2,3).dst'
p2479
sg13
I7353196
sg14
(dp2480
g18
I99999999
ssg19
(dp2481
g9
F1.0
sg10
F1.0
sg21
F1.0
sg22
F1.0
sg23
F1.0
sg24
F1.0
ssg27
(dp2482
g9
I14
sg10
I19
sg21
I1
sg22
I0
sg23
I5
sg24
I4
ssa(dp2483
g7
(dp2484
g9
I15
sg10
I19
ssg11
S'src.0.(1,2,3).dst'
p2485
sg13
I3978597
sg14
(dp2486
g18
I99999999
ssg19
(dp2487
g9
F1.0
sg10
F1.0
sg21
F1.0
sg22
F1.0
sg23
F1.0
sg24
F1.0
ssg27
(dp2488
g9
I15
sg10
I19
sg21
I0
sg22
I4
sg23
I1
sg24
I6
ssa(dp2489
g7
(dp2490
g9
I1
sg10
I7
ssg11
S'src.0.(1,2,3).4.5.dst'
p2491
sg13
I4285602
sg14
(dp2492
g18
I99999999
ssg19
(dp2493
g9
F1.0
sg10
F1.0
sg21
F1.0
sg22
F1.0
sg23
F1.0
sg24
F1.0
sg25
F1.0
sg26
F1.0
ssg27
(dp2494
g9
I1
sg10
I7
sg21
I3
sg22
I0
sg23
I4
sg24
I2
sg25
I6
sg26
I5
ssa(dp2495
g7
(dp2496
g9
I6
sg10
I20
ssg11
S'src.0.(1,2,3).4.dst'
p2497
sg13
I5663041
sg14
(dp2498
g18
I99999999
ssg19
(dp2499
g9
F1.0
sg10
F1.0
sg21
F1.0
sg22
F1.0
sg23
F1.0
sg24
F1.0
sg26
F1.0
ssg27
(dp2500
g9
I6
sg10
I20
sg21
I2
sg22
I0
sg23
I6
sg24
I4
sg26
I1
ssa(dp2501
g7
(dp2502
g9
I4
sg10
I19
ssg11
S'src.0.(1,2,3).4.dst'
p2503
sg13
I1023652
sg14
(dp2504
g18
I99999999
ssg19
(dp2505
g9
F1.0
sg10
F1.0
sg21
F1.0
sg22
F1.0
sg23
F1.0
sg24
F1.0
sg26
F1.0
ssg27
(dp2506
g9
I4
sg10
I19
sg21
I0
sg22
I2
sg23
I3
sg24
I6
sg26
I4
ssa(dp2507
g7
(dp2508
g9
I8
sg10
I14
ssg11
S'src.0.(1,2).dst'
p2509
sg13
I1096050
sg14
(dp2510
g18
I99999999
ssg19
(dp2511
g21
F1.0
sg9
F1.0
sg10
F1.0
sg24
F1.0
sg22
F1.0
ssg27
(dp2512
g21
I4
sg9
I8
sg10
I14
sg24
I2
sg22
I6
ssa(dp2513
g7
(dp2514
g9
I5
sg10
I14
ssg11
S'src.0.(1,2,3).4.5.dst'
p2515
sg13
I1641941
sg14
(dp2516
g18
I99999999
ssg19
(dp2517
g9
F1.0
sg10
F1.0
sg21
F1.0
sg22
F1.0
sg23
F1.0
sg24
F1.0
sg25
F1.0
sg26
F1.0
ssg27
(dp2518
g9
I5
sg10
I14
sg21
I3
sg22
I4
sg23
I1
sg24
I5
sg25
I2
sg26
I0
ssa(dp2519
g7
(dp2520
g9
I11
sg10
I16
ssg11
S'src.0.(1,2,3).4.5.dst'
p2521
sg13
I2187347
sg14
(dp2522
g18
I99999999
ssg19
(dp2523
g9
F1.0
sg10
F1.0
sg21
F1.0
sg22
F1.0
sg23
F1.0
sg24
F1.0
sg25
F1.0
sg26
F1.0
ssg27
(dp2524
g9
I11
sg10
I16
sg21
I5
sg22
I4
sg23
I2
sg24
I1
sg25
I3
sg26
I0
ssa(dp2525
g7
(dp2526
g9
I15
sg10
I20
ssg11
S'src.0.(1,2,3).dst'
p2527
sg13
I18742960
sg14
(dp2528
g18
I99999999
ssg19
(dp2529
g9
F1.0
sg10
F1.0
sg21
F1.0
sg22
F1.0
sg23
F1.0
sg24
F1.0
ssg27
(dp2530
g9
I15
sg10
I20
sg21
I3
sg22
I5
sg23
I1
sg24
I2
ssa(dp2531
g7
(dp2532
g9
I1
sg10
I15
ssg11
S'src.0.(1,2,3).4.5.dst'
p2533
sg13
I4179459
sg14
(dp2534
g18
I99999999
ssg19
(dp2535
g9
F1.0
sg10
F1.0
sg21
F1.0
sg22
F1.0
sg23
F1.0
sg24
F1.0
sg25
F1.0
sg26
F1.0
ssg27
(dp2536
g9
I1
sg10
I15
sg21
I0
sg22
I2
sg23
I3
sg24
I5
sg25
I4
sg26
I1
ssa(dp2537
g7
(dp2538
g9
I13
sg10
I15
ssg11
S'src.0.(1,2,3).dst'
p2539
sg13
I5019062
sg14
(dp2540
g18
I99999999
ssg19
(dp2541
g9
F1.0
sg10
F1.0
sg21
F1.0
sg22
F1.0
sg23
F1.0
sg24
F1.0
ssg27
(dp2542
g9
I13
sg10
I15
sg21
I0
sg22
I3
sg23
I4
sg24
I5
ssa(dp2543
g7
(dp2544
g9
I14
sg10
I15
ssg11
S'src.0.(1,2,3).dst'
p2545
sg13
I4503350
sg14
(dp2546
g18
I99999999
ssg19
(dp2547
g9
F1.0
sg10
F1.0
sg21
F1.0
sg22
F1.0
sg23
F1.0
sg24
F1.0
ssg27
(dp2548
g9
I14
sg10
I15
sg21
I1
sg22
I3
sg23
I6
sg24
I0
ssa(dp2549
g7
(dp2550
g9
I14
sg10
I17
ssg11
S'src.0.(1,2,3).4.dst'
p2551
sg13
I2582409
sg14
(dp2552
g18
I99999999
ssg19
(dp2553
g9
F1.0
sg10
F1.0
sg21
F1.0
sg22
F1.0
sg23
F1.0
sg24
F1.0
sg26
F1.0
ssg27
(dp2554
g9
I14
sg10
I17
sg21
I0
sg22
I1
sg23
I3
sg24
I2
sg26
I4
ssa(dp2555
g7
(dp2556
g9
I11
sg10
I14
ssg11
S'src.0.(1,2).dst'
p2557
sg13
I1419307
sg14
(dp2558
g18
I99999999
ssg19
(dp2559
g21
F1.0
sg9
F1.0
sg10
F1.0
sg24
F1.0
sg22
F1.0
ssg27
(dp2560
g21
I6
sg9
I11
sg10
I14
sg24
I3
sg22
I4
ssa(dp2561
g7
(dp2562
g9
I11
sg10
I19
ssg11
S'src.0.(1,2).dst'
p2563
sg13
I2496601
sg14
(dp2564
g18
I99999999
ssg19
(dp2565
g21
F1.0
sg9
F1.0
sg10
F1.0
sg24
F1.0
sg22
F1.0
ssg27
(dp2566
g21
I5
sg9
I11
sg10
I19
sg24
I1
sg22
I0
ssa(dp2567
g7
(dp2568
g9
I9
sg10
I15
ssg11
S'src.0.(1,2).dst'
p2569
sg13
I9659538
sg14
(dp2570
g18
I99999999
ssg19
(dp2571
g21
F1.0
sg9
F1.0
sg10
F1.0
sg24
F1.0
sg22
F1.0
ssg27
(dp2572
g21
I4
sg9
I9
sg10
I15
sg24
I2
sg22
I6
ssa(dp2573
g7
(dp2574
g9
I14
sg10
I17
ssg11
S'src.0.(1,2,3).4.5.dst'
p2575
sg13
I6732345
sg14
(dp2576
g18
I99999999
ssg19
(dp2577
g9
F1.0
sg10
F1.0
sg21
F1.0
sg22
F1.0
sg23
F1.0
sg24
F1.0
sg25
F1.0
sg26
F1.0
ssg27
(dp2578
g9
I14
sg10
I17
sg21
I3
sg22
I2
sg23
I6
sg24
I1
sg25
I0
sg26
I5
ssa(dp2579
g7
(dp2580
g9
I11
sg10
I15
ssg11
S'src.0.(1,2,3).dst'
p2581
sg13
I7905003
sg14
(dp2582
g18
I99999999
ssg19
(dp2583
g9
F1.0
sg10
F1.0
sg21
F1.0
sg22
F1.0
sg23
F1.0
sg24
F1.0
ssg27
(dp2584
g9
I11
sg10
I15
sg21
I5
sg22
I2
sg23
I4
sg24
I1
ssa(dp2585
g7
(dp2586
g9
I1
sg10
I15
ssg11
S'src.0.(1,2).dst'
p2587
sg13
I2284140
sg14
(dp2588
g18
I99999999
ssg19
(dp2589
g21
F1.0
sg9
F1.0
sg10
F1.0
sg24
F1.0
sg22
F1.0
ssg27
(dp2590
g21
I6
sg9
I1
sg10
I15
sg24
I2
sg22
I1
ssa(dp2591
g7
(dp2592
g9
I11
sg10
I16
ssg11
S'src.0.(1,2,3).4.5.dst'
p2593
sg13
I2187347
sg14
(dp2594
g18
I99999999
ssg19
(dp2595
g9
F1.0
sg10
F1.0
sg21
F1.0
sg22
F1.0
sg23
F1.0
sg24
F1.0
sg25
F1.0
sg26
F1.0
ssg27
(dp2596
g9
I11
sg10
I16
sg21
I5
sg22
I4
sg23
I2
sg24
I1
sg25
I3
sg26
I0
ssa(dp2597
g7
(dp2598
g9
I15
sg10
I20
ssg11
S'src.0.(1,2,3).dst'
p2599
sg13
I18742960
sg14
(dp2600
g18
I99999999
ssg19
(dp2601
g9
F1.0
sg10
F1.0
sg21
F1.0
sg22
F1.0
sg23
F1.0
sg24
F1.0
ssg27
(dp2602
g9
I15
sg10
I20
sg21
I3
sg22
I5
sg23
I1
sg24
I2
ssa(dp2603
g7
(dp2604
g9
I4
sg10
I11
ssg11
S'src.0.(1,2,3).4.dst'
p2605
sg13
I815196
sg14
(dp2606
g18
I99999999
ssg19
(dp2607
g9
F1.0
sg10
F1.0
sg21
F1.0
sg22
F1.0
sg23
F1.0
sg24
F1.0
sg26
F1.0
ssg27
(dp2608
g9
I4
sg10
I11
sg21
I3
sg22
I1
sg23
I6
sg24
I2
sg26
I4
ssa(dp2609
g7
(dp2610
g9
I6
sg10
I13
ssg11
S'src.0.(1,2,3).4.dst'
p2611
sg13
I2181532
sg14
(dp2612
g18
I99999999
ssg19
(dp2613
g9
F1.0
sg10
F1.0
sg21
F1.0
sg22
F1.0
sg23
F1.0
sg24
F1.0
sg26
F1.0
ssg27
(dp2614
g9
I6
sg10
I13
sg21
I5
sg22
I4
sg23
I0
sg24
I2
sg26
I1
ssa(dp2615
g7
(dp2616
g9
I6
sg10
I20
ssg11
S'src.0.(1,2,3).4.dst'
p2617
sg13
I5663041
sg14
(dp2618
g18
I99999999
ssg19
(dp2619
g9
F1.0
sg10
F1.0
sg21
F1.0
sg22
F1.0
sg23
F1.0
sg24
F1.0
sg26
F1.0
ssg27
(dp2620
g9
I6
sg10
I20
sg21
I2
sg22
I0
sg23
I6
sg24
I4
sg26
I1
ssa(dp2621
g7
(dp2622
g9
I6
sg10
I20
ssg11
S'src.0.(1,2,3).4.5.dst'
p2623
sg13
I2937439
sg14
(dp2624
g18
I99999999
ssg19
(dp2625
g9
F1.0
sg10
F1.0
sg21
F1.0
sg22
F1.0
sg23
F1.0
sg24
F1.0
sg25
F1.0
sg26
F1.0
ssg27
(dp2626
g9
I6
sg10
I20
sg21
I0
sg22
I4
sg23
I6
sg24
I5
sg25
I1
sg26
I2
ssa(dp2627
g7
(dp2628
g9
I7
sg10
I15
ssg11
S'src.0.(1,2,3).dst'
p2629
sg13
I1142854
sg14
(dp2630
g18
I99999999
ssg19
(dp2631
g9
F1.0
sg10
F1.0
sg21
F1.0
sg22
F1.0
sg23
F1.0
sg24
F1.0
ssg27
(dp2632
g9
I7
sg10
I15
sg21
I6
sg22
I0
sg23
I4
sg24
I2
ssa(dp2633
g7
(dp2634
g9
I6
sg10
I15
ssg11
S'src.0.(1,2,3).dst'
p2635
sg13
I17977963
sg14
(dp2636
g18
I99999999
ssg19
(dp2637
g9
F1.0
sg10
F1.0
sg21
F1.0
sg22
F1.0
sg23
F1.0
sg24
F1.0
ssg27
(dp2638
g9
I6
sg10
I15
sg21
I6
sg22
I4
sg23
I2
sg24
I1
ssa(dp2639
g7
(dp2640
g9
I15
sg10
I16
ssg11
S'src.0.(1,2,3).4.5.dst'
p2641
sg13
I6124172
sg14
(dp2642
g18
I99999999
ssg19
(dp2643
g9
F1.0
sg10
F1.0
sg21
F1.0
sg22
F1.0
sg23
F1.0
sg24
F1.0
sg25
F1.0
sg26
F1.0
ssg27
(dp2644
g9
I15
sg10
I16
sg21
I5
sg22
I4
sg23
I6
sg24
I2
sg25
I3
sg26
I1
ssa(dp2645
g7
(dp2646
g9
I15
sg10
I16
ssg11
S'src.0.(1,2,3).4.dst'
p2647
sg13
I9028917
sg14
(dp2648
g18
I99999999
ssg19
(dp2649
g9
F1.0
sg10
F1.0
sg21
F1.0
sg22
F1.0
sg23
F1.0
sg24
F1.0
sg26
F1.0
ssg27
(dp2650
g9
I15
sg10
I16
sg21
I4
sg22
I2
sg23
I6
sg24
I0
sg26
I1
ssa(dp2651
g7
(dp2652
g9
I11
sg10
I14
ssg11
S'src.0.(1,2).dst'
p2653
sg13
I1284694
sg14
(dp2654
g18
I99999999
ssg19
(dp2655
g21
F1.0
sg9
F1.0
sg10
F1.0
sg24
F1.0
sg22
F1.0
ssg27
(dp2656
g21
I1
sg9
I11
sg10
I14
sg24
I4
sg22
I0
ssa(dp2657
g7
(dp2658
g9
I12
sg10
I14
ssg11
S'src.0.(1,2,3).4.5.dst'
p2659
sg13
I1440375
sg14
(dp2660
g18
I99999999
ssg19
(dp2661
g9
F1.0
sg10
F1.0
sg21
F1.0
sg22
F1.0
sg23
F1.0
sg24
F1.0
sg25
F1.0
sg26
F1.0
ssg27
(dp2662
g9
I12
sg10
I14
sg21
I5
sg22
I0
sg23
I4
sg24
I1
sg25
I3
sg26
I2
ssa(dp2663
g7
(dp2664
g9
I6
sg10
I19
ssg11
S'src.0.(1,2,3).4.dst'
p2665
sg13
I9067239
sg14
(dp2666
g18
I99999999
ssg19
(dp2667
g9
F1.0
sg10
F1.0
sg21
F1.0
sg22
F1.0
sg23
F1.0
sg24
F1.0
sg26
F1.0
ssg27
(dp2668
g9
I6
sg10
I19
sg21
I5
sg22
I2
sg23
I6
sg24
I1
sg26
I4
ssa(dp2669
g7
(dp2670
g9
I11
sg10
I16
ssg11
S'src.0.(1,2,3).4.dst'
p2671
sg13
I2957536
sg14
(dp2672
g18
I99999999
ssg19
(dp2673
g9
F1.0
sg10
F1.0
sg21
F1.0
sg22
F1.0
sg23
F1.0
sg24
F1.0
sg26
F1.0
ssg27
(dp2674
g9
I11
sg10
I16
sg21
I4
sg22
I0
sg23
I6
sg24
I1
sg26
I5
ssa(dp2675
g7
(dp2676
g9
I11
sg10
I19
ssg11
S'src.0.(1,2,3).4.dst'
p2677
sg13
I1530665
sg14
(dp2678
g18
I99999999
ssg19
(dp2679
g9
F1.0
sg10
F1.0
sg21
F1.0
sg22
F1.0
sg23
F1.0
sg24
F1.0
sg26
F1.0
ssg27
(dp2680
g9
I11
sg10
I19
sg21
I3
sg22
I2
sg23
I4
sg24
I5
sg26
I6
ssa(dp2681
g7
(dp2682
g9
I10
sg10
I15
ssg11
S'src.0.(1,2,3).4.dst'
p2683
sg13
I4442472
sg14
(dp2684
g18
I99999999
ssg19
(dp2685
g9
F1.0
sg10
F1.0
sg21
F1.0
sg22
F1.0
sg23
F1.0
sg24
F1.0
sg26
F1.0
ssg27
(dp2686
g9
I10
sg10
I15
sg21
I1
sg22
I3
sg23
I4
sg24
I6
sg26
I0
ssa(dp2687
g7
(dp2688
g9
I9
sg10
I13
ssg11
S'src.0.(1,2,3).4.dst'
p2689
sg13
I822540
sg14
(dp2690
g18
I99999999
ssg19
(dp2691
g9
F1.0
sg10
F1.0
sg21
F1.0
sg22
F1.0
sg23
F1.0
sg24
F1.0
sg26
F1.0
ssg27
(dp2692
g9
I9
sg10
I13
sg21
I5
sg22
I4
sg23
I2
sg24
I1
sg26
I0
ssa(dp2693
g7
(dp2694
g9
I13
sg10
I15
ssg11
S'src.0.(1,2).dst'
p2695
sg13
I1617533
sg14
(dp2696
g18
I99999999
ssg19
(dp2697
g21
F1.0
sg9
F1.0
sg10
F1.0
sg24
F1.0
sg22
F1.0
ssg27
(dp2698
g21
I2
sg9
I13
sg10
I15
sg24
I4
sg22
I5
ssa(dp2699
g7
(dp2700
g9
I14
sg10
I19
ssg11
S'src.0.(1,2).dst'
p2701
sg13
I4312493
sg14
(dp2702
g18
I99999999
ssg19
(dp2703
g21
F1.0
sg9
F1.0
sg10
F1.0
sg24
F1.0
sg22
F1.0
ssg27
(dp2704
g21
I1
sg9
I14
sg10
I19
sg24
I5
sg22
I0
ssa(dp2705
g7
(dp2706
g9
I10
sg10
I15
ssg11
S'src.0.(1,2,3).4.dst'
p2707
sg13
I5654580
sg14
(dp2708
g18
I99999999
ssg19
(dp2709
g9
F1.0
sg10
F1.0
sg21
F1.0
sg22
F1.0
sg23
F1.0
sg24
F1.0
sg26
F1.0
ssg27
(dp2710
g9
I10
sg10
I15
sg21
I4
sg22
I3
sg23
I1
sg24
I5
sg26
I6
ssa(dp2711
g7
(dp2712
g9
I14
sg10
I17
ssg11
S'src.0.(1,2,3).4.5.dst'
p2713
sg13
I4029393
sg14
(dp2714
g18
I99999999
ssg19
(dp2715
g9
F1.0
sg10
F1.0
sg21
F1.0
sg22
F1.0
sg23
F1.0
sg24
F1.0
sg25
F1.0
sg26
F1.0
ssg27
(dp2716
g9
I14
sg10
I17
sg21
I0
sg22
I3
sg23
I6
sg24
I2
sg25
I1
sg26
I5
ssa(dp2717
g7
(dp2718
g9
I4
sg10
I8
ssg11
S'src.0.(1,2,3).4.dst'
p2719
sg13
I949227
sg14
(dp2720
g18
I99999999
ssg19
(dp2721
g9
F1.0
sg10
F1.0
sg21
F1.0
sg22
F1.0
sg23
F1.0
sg24
F1.0
sg26
F1.0
ssg27
(dp2722
g9
I4
sg10
I8
sg21
I0
sg22
I4
sg23
I6
sg24
I3
sg26
I1
ssa(dp2723
g7
(dp2724
g9
I1
sg10
I15
ssg11
S'src.0.(1,2).dst'
p2725
sg13
I2284140
sg14
(dp2726
g18
I99999999
ssg19
(dp2727
g21
F1.0
sg9
F1.0
sg10
F1.0
sg24
F1.0
sg22
F1.0
ssg27
(dp2728
g21
I6
sg9
I1
sg10
I15
sg24
I2
sg22
I1
ssa(dp2729
g7
(dp2730
g9
I7
sg10
I15
ssg11
S'src.0.(1,2).dst'
p2731
sg13
I1304164
sg14
(dp2732
g18
I99999999
ssg19
(dp2733
g21
F1.0
sg9
F1.0
sg10
F1.0
sg24
F1.0
sg22
F1.0
ssg27
(dp2734
g21
I4
sg9
I7
sg10
I15
sg24
I6
sg22
I1
ssa(dp2735
g7
(dp2736
g9
I6
sg10
I13
ssg11
S'src.0.(1,2,3).4.dst'
p2737
sg13
I4322382
sg14
(dp2738
g18
I99999999
ssg19
(dp2739
g9
F1.0
sg10
F1.0
sg21
F1.0
sg22
F1.0
sg23
F1.0
sg24
F1.0
sg26
F1.0
ssg27
(dp2740
g9
I6
sg10
I13
sg21
I1
sg22
I3
sg23
I6
sg24
I4
sg26
I2
ssa(dp2741
g7
(dp2742
g9
I10
sg10
I14
ssg11
S'src.0.(1,2,3).4.5.dst'
p2743
sg13
I812773
sg14
(dp2744
g18
I99999999
ssg19
(dp2745
g9
F1.0
sg10
F1.0
sg21
F1.0
sg22
F1.0
sg23
F1.0
sg24
F1.0
sg25
F1.0
sg26
F1.0
ssg27
(dp2746
g9
I10
sg10
I14
sg21
I2
sg22
I3
sg23
I0
sg24
I5
sg25
I1
sg26
I6
ssa(dp2747
g7
(dp2748
g9
I13
sg10
I15
ssg11
S'src.0.(1,2).dst'
p2749
sg13
I5527630
sg14
(dp2750
g18
I99999999
ssg19
(dp2751
g21
F1.0
sg9
F1.0
sg10
F1.0
sg24
F1.0
sg22
F1.0
ssg27
(dp2752
g21
I6
sg9
I13
sg10
I15
sg24
I4
sg22
I2
ssa(dp2753
g7
(dp2754
g9
I11
sg10
I17
ssg11
S'src.0.(1,2,3).4.5.dst'
p2755
sg13
I2616100
sg14
(dp2756
g18
I99999999
ssg19
(dp2757
g9
F1.0
sg10
F1.0
sg21
F1.0
sg22
F1.0
sg23
F1.0
sg24
F1.0
sg25
F1.0
sg26
F1.0
ssg27
(dp2758
g9
I11
sg10
I17
sg21
I0
sg22
I1
sg23
I5
sg24
I6
sg25
I4
sg26
I2
ssa(dp2759
g7
(dp2760
g9
I6
sg10
I20
ssg11
S'src.0.(1,2).dst'
p2761
sg13
I3228995
sg14
(dp2762
g18
I99999999
ssg19
(dp2763
g21
F1.0
sg9
F1.0
sg10
F1.0
sg24
F1.0
sg22
F1.0
ssg27
(dp2764
g21
I1
sg9
I6
sg10
I20
sg24
I6
sg22
I3
ssa(dp2765
g7
(dp2766
g9
I6
sg10
I20
ssg11
S'src.0.(1,2,3).4.5.dst'
p2767
sg13
I2937439
sg14
(dp2768
g18
I99999999
ssg19
(dp2769
g9
F1.0
sg10
F1.0
sg21
F1.0
sg22
F1.0
sg23
F1.0
sg24
F1.0
sg25
F1.0
sg26
F1.0
ssg27
(dp2770
g9
I6
sg10
I20
sg21
I0
sg22
I4
sg23
I6
sg24
I5
sg25
I1
sg26
I2
ssa(dp2771
g7
(dp2772
g9
I5
sg10
I15
ssg11
S'src.0.(1,2,3).dst'
p2773
sg13
I4350510
sg14
(dp2774
g18
I99999999
ssg19
(dp2775
g9
F1.0
sg10
F1.0
sg21
F1.0
sg22
F1.0
sg23
F1.0
sg24
F1.0
ssg27
(dp2776
g9
I5
sg10
I15
sg21
I0
sg22
I3
sg23
I6
sg24
I2
ssa(dp2777
g7
(dp2778
g9
I11
sg10
I16
ssg11
S'src.0.(1,2,3).4.dst'
p2779
sg13
I1219329
sg14
(dp2780
g18
I99999999
ssg19
(dp2781
g9
F1.0
sg10
F1.0
sg21
F1.0
sg22
F1.0
sg23
F1.0
sg24
F1.0
sg26
F1.0
ssg27
(dp2782
g9
I11
sg10
I16
sg21
I2
sg22
I4
sg23
I0
sg24
I3
sg26
I1
ssa(dp2783
g7
(dp2784
g9
I11
sg10
I17
ssg11
S'src.0.(1,2,3).4.5.dst'
p2785
sg13
I1695050
sg14
(dp2786
g18
I99999999
ssg19
(dp2787
g9
F1.0
sg10
F1.0
sg21
F1.0
sg22
F1.0
sg23
F1.0
sg24
F1.0
sg25
F1.0
sg26
F1.0
ssg27
(dp2788
g9
I11
sg10
I17
sg21
I0
sg22
I1
sg23
I3
sg24
I6
sg25
I2
sg26
I4
ssa(dp2789
g7
(dp2790
g9
I11
sg10
I14
ssg11
S'src.0.(1,2).dst'
p2791
sg13
I1419307
sg14
(dp2792
g18
I99999999
ssg19
(dp2793
g21
F1.0
sg9
F1.0
sg10
F1.0
sg24
F1.0
sg22
F1.0
ssg27
(dp2794
g21
I6
sg9
I11
sg10
I14
sg24
I3
sg22
I4
ssa(dp2795
g7
(dp2796
g9
I7
sg10
I19
ssg11
S'src.0.(1,2,3).4.5.dst'
p2797
sg13
I4488051
sg14
(dp2798
g18
I99999999
ssg19
(dp2799
g9
F1.0
sg10
F1.0
sg21
F1.0
sg22
F1.0
sg23
F1.0
sg24
F1.0
sg25
F1.0
sg26
F1.0
ssg27
(dp2800
g9
I7
sg10
I19
sg21
I6
sg22
I0
sg23
I5
sg24
I2
sg25
I4
sg26
I1
ssa(dp2801
g7
(dp2802
g9
I10
sg10
I11
ssg11
S'src.0.(1,2).dst'
p2803
sg13
I977985
sg14
(dp2804
g18
I99999999
ssg19
(dp2805
g21
F1.0
sg9
F1.0
sg10
F1.0
sg24
F1.0
sg22
F1.0
ssg27
(dp2806
g21
I1
sg9
I10
sg10
I11
sg24
I6
sg22
I2
ssa(dp2807
g7
(dp2808
g9
I15
sg10
I17
ssg11
S'src.0.(1,2,3).4.5.dst'
p2809
sg13
I3502944
sg14
(dp2810
g18
I99999999
ssg19
(dp2811
g9
F1.0
sg10
F1.0
sg21
F1.0
sg22
F1.0
sg23
F1.0
sg24
F1.0
sg25
F1.0
sg26
F1.0
ssg27
(dp2812
g9
I15
sg10
I17
sg21
I6
sg22
I0
sg23
I4
sg24
I2
sg25
I3
sg26
I1
ssa(dp2813
g7
(dp2814
g9
I1
sg10
I7
ssg11
S'src.0.(1,2,3).4.dst'
p2815
sg13
I3108988
sg14
(dp2816
g18
I99999999
ssg19
(dp2817
g9
F1.0
sg10
F1.0
sg21
F1.0
sg22
F1.0
sg23
F1.0
sg24
F1.0
sg26
F1.0
ssg27
(dp2818
g9
I1
sg10
I7
sg21
I2
sg22
I5
sg23
I0
sg24
I1
sg26
I6
ssa(dp2819
g7
(dp2820
g9
I11
sg10
I20
ssg11
S'src.0.(1,2).dst'
p2821
sg13
I2438364
sg14
(dp2822
g18
I99999999
ssg19
(dp2823
g21
F1.0
sg9
F1.0
sg10
F1.0
sg24
F1.0
sg22
F1.0
ssg27
(dp2824
g21
I2
sg9
I11
sg10
I20
sg24
I4
sg22
I6
ssa(dp2825
g7
(dp2826
g9
I9
sg10
I15
ssg11
S'src.0.(1,2).dst'
p2827
sg13
I9659538
sg14
(dp2828
g18
I99999999
ssg19
(dp2829
g21
F1.0
sg9
F1.0
sg10
F1.0
sg24
F1.0
sg22
F1.0
ssg27
(dp2830
g21
I4
sg9
I9
sg10
I15
sg24
I2
sg22
I6
ssa(dp2831
g7
(dp2832
g9
I15
sg10
I19
ssg11
S'src.0.(1,2,3).dst'
p2833
sg13
I3978597
sg14
(dp2834
g18
I99999999
ssg19
(dp2835
g9
F1.0
sg10
F1.0
sg21
F1.0
sg22
F1.0
sg23
F1.0
sg24
F1.0
ssg27
(dp2836
g9
I15
sg10
I19
sg21
I0
sg22
I4
sg23
I1
sg24
I6
ssa(dp2837
g7
(dp2838
g9
I6
sg10
I13
ssg11
S'src.0.(1,2,3).4.dst'
p2839
sg13
I10313775
sg14
(dp2840
g18
I99999999
ssg19
(dp2841
g9
F1.0
sg10
F1.0
sg21
F1.0
sg22
F1.0
sg23
F1.0
sg24
F1.0
sg26
F1.0
ssg27
(dp2842
g9
I6
sg10
I13
sg21
I0
sg22
I4
sg23
I1
sg24
I5
sg26
I2
ssa(dp2843
g7
(dp2844
g9
I10
sg10
I17
ssg11
S'src.0.(1,2).dst'
p2845
sg13
I2302052
sg14
(dp2846
g18
I99999999
ssg19
(dp2847
g21
F1.0
sg9
F1.0
sg10
F1.0
sg24
F1.0
sg22
F1.0
ssg27
(dp2848
g21
I6
sg9
I10
sg10
I17
sg24
I2
sg22
I1
ssa(dp2849
g7
(dp2850
g9
I16
sg10
I17
ssg11
S'src.0.(1,2).dst'
p2851
sg13
I894974
sg14
(dp2852
g18
I99999999
ssg19
(dp2853
g21
F1.0
sg9
F1.0
sg10
F1.0
sg24
F1.0
sg22
F1.0
ssg27
(dp2854
g21
I5
sg9
I16
sg10
I17
sg24
I2
sg22
I1
ssa(dp2855
g7
(dp2856
g9
I8
sg10
I15
ssg11
S'src.0.(1,2).dst'
p2857
sg13
I15951002
sg14
(dp2858
g18
I99999999
ssg19
(dp2859
g21
F1.0
sg9
F1.0
sg10
F1.0
sg24
F1.0
sg22
F1.0
ssg27
(dp2860
g21
I1
sg9
I8
sg10
I15
sg24
I4
sg22
I6
ssa(dp2861
g7
(dp2862
g9
I11
sg10
I13
ssg11
S'src.0.(1,2).dst'
p2863
sg13
I810817
sg14
(dp2864
g18
I99999999
ssg19
(dp2865
g21
F1.0
sg9
F1.0
sg10
F1.0
sg24
F1.0
sg22
F1.0
ssg27
(dp2866
g21
I1
sg9
I11
sg10
I13
sg24
I5
sg22
I4
ssa(dp2867
g7
(dp2868
g9
I6
sg10
I15
ssg11
S'src.0.(1,2,3).dst'
p2869
sg13
I5711147
sg14
(dp2870
g18
I99999999
ssg19
(dp2871
g9
F1.0
sg10
F1.0
sg21
F1.0
sg22
F1.0
sg23
F1.0
sg24
F1.0
ssg27
(dp2872
g9
I6
sg10
I15
sg21
I3
sg22
I5
sg23
I6
sg24
I0
ssa(dp2873
g7
(dp2874
g9
I15
sg10
I19
ssg11
S'src.0.(1,2).dst'
p2875
sg13
I10081440
sg14
(dp2876
g18
I99999999
ssg19
(dp2877
g21
F1.0
sg9
F1.0
sg10
F1.0
sg24
F1.0
sg22
F1.0
ssg27
(dp2878
g21
I5
sg9
I15
sg10
I19
sg24
I4
sg22
I0
ssa(dp2879
g7
(dp2880
g9
I8
sg10
I14
ssg11
S'src.0.(1,2,3).4.dst'
p2881
sg13
I1192235
sg14
(dp2882
g18
I99999999
ssg19
(dp2883
g9
F1.0
sg10
F1.0
sg21
F1.0
sg22
F1.0
sg23
F1.0
sg24
F1.0
sg26
F1.0
ssg27
(dp2884
g9
I8
sg10
I14
sg21
I5
sg22
I1
sg23
I2
sg24
I6
sg26
I4
ssa(dp2885
g7
(dp2886
g9
I10
sg10
I14
ssg11
S'src.0.(1,2).dst'
p2887
sg13
I879888
sg14
(dp2888
g18
I99999999
ssg19
(dp2889
g21
F1.0
sg9
F1.0
sg10
F1.0
sg24
F1.0
sg22
F1.0
ssg27
(dp2890
g21
I0
sg9
I10
sg10
I14
sg24
I1
sg22
I3
ssa(dp2891
g7
(dp2892
g9
I11
sg10
I20
ssg11
S'src.0.(1,2,3).4.5.dst'
p2893
sg13
I1170541
sg14
(dp2894
g18
I99999999
ssg19
(dp2895
g9
F1.0
sg10
F1.0
sg21
F1.0
sg22
F1.0
sg23
F1.0
sg24
F1.0
sg25
F1.0
sg26
F1.0
ssg27
(dp2896
g9
I11
sg10
I20
sg21
I4
sg22
I0
sg23
I2
sg24
I1
sg25
I6
sg26
I5
ssa(dp2897
g7
(dp2898
g9
I6
sg10
I20
ssg11
S'src.0.(1,2,3).4.5.dst'
p2899
sg13
I2937439
sg14
(dp2900
g18
I99999999
ssg19
(dp2901
g9
F1.0
sg10
F1.0
sg21
F1.0
sg22
F1.0
sg23
F1.0
sg24
F1.0
sg25
F1.0
sg26
F1.0
ssg27
(dp2902
g9
I6
sg10
I20
sg21
I0
sg22
I4
sg23
I6
sg24
I5
sg25
I1
sg26
I2
ssa(dp2903
g7
(dp2904
g9
I10
sg10
I11
ssg11
S'src.0.(1,2).dst'
p2905
sg13
I977985
sg14
(dp2906
g18
I99999999
ssg19
(dp2907
g21
F1.0
sg9
F1.0
sg10
F1.0
sg24
F1.0
sg22
F1.0
ssg27
(dp2908
g21
I1
sg9
I10
sg10
I11
sg24
I6
sg22
I2
ssa(dp2909
g7
(dp2910
g9
I5
sg10
I15
ssg11
S'src.0.(1,2,3).4.5.dst'
p2911
sg13
I8263371
sg14
(dp2912
g18
I99999999
ssg19
(dp2913
g9
F1.0
sg10
F1.0
sg21
F1.0
sg22
F1.0
sg23
F1.0
sg24
F1.0
sg25
F1.0
sg26
F1.0
ssg27
(dp2914
g9
I5
sg10
I15
sg21
I6
sg22
I2
sg23
I5
sg24
I4
sg25
I3
sg26
I1
ssa(dp2915
g7
(dp2916
g9
I15
sg10
I19
ssg11
S'src.0.(1,2).dst'
p2917
sg13
I5954096
sg14
(dp2918
g18
I99999999
ssg19
(dp2919
g21
F1.0
sg9
F1.0
sg10
F1.0
sg24
F1.0
sg22
F1.0
ssg27
(dp2920
g21
I1
sg9
I15
sg10
I19
sg24
I0
sg22
I4
ssa(dp2921
g7
(dp2922
g9
I6
sg10
I20
ssg11
S'src.0.(1,2,3).4.5.dst'
p2923
sg13
I2937439
sg14
(dp2924
g18
I99999999
ssg19
(dp2925
g9
F1.0
sg10
F1.0
sg21
F1.0
sg22
F1.0
sg23
F1.0
sg24
F1.0
sg25
F1.0
sg26
F1.0
ssg27
(dp2926
g9
I6
sg10
I20
sg21
I0
sg22
I4
sg23
I6
sg24
I5
sg25
I1
sg26
I2
ssa(dp2927
g7
(dp2928
g9
I10
sg10
I20
ssg11
S'src.0.(1,2,3).4.5.dst'
p2929
sg13
I3113753
sg14
(dp2930
g18
I99999999
ssg19
(dp2931
g9
F1.0
sg10
F1.0
sg21
F1.0
sg22
F1.0
sg23
F1.0
sg24
F1.0
sg25
F1.0
sg26
F1.0
ssg27
(dp2932
g9
I10
sg10
I20
sg21
I3
sg22
I5
sg23
I2
sg24
I6
sg25
I0
sg26
I4
ssa(dp2933
g7
(dp2934
g9
I10
sg10
I17
ssg11
S'src.0.(1,2).dst'
p2935
sg13
I17022243
sg14
(dp2936
g18
I99999999
ssg19
(dp2937
g21
F1.0
sg9
F1.0
sg10
F1.0
sg24
F1.0
sg22
F1.0
ssg27
(dp2938
g21
I1
sg9
I10
sg10
I17
sg24
I5
sg22
I4
ssa(dp2939
g7
(dp2940
g9
I10
sg10
I20
ssg11
S'src.0.(1,2,3).dst'
p2941
sg13
I1422849
sg14
(dp2942
g18
I99999999
ssg19
(dp2943
g9
F1.0
sg10
F1.0
sg21
F1.0
sg22
F1.0
sg23
F1.0
sg24
F1.0
ssg27
(dp2944
g9
I10
sg10
I20
sg21
I3
sg22
I2
sg23
I6
sg24
I5
ssa(dp2945
g7
(dp2946
g9
I10
sg10
I15
ssg11
S'src.0.(1,2,3).4.5.dst'
p2947
sg13
I2938013
sg14
(dp2948
g18
I99999999
ssg19
(dp2949
g9
F1.0
sg10
F1.0
sg21
F1.0
sg22
F1.0
sg23
F1.0
sg24
F1.0
sg25
F1.0
sg26
F1.0
ssg27
(dp2950
g9
I10
sg10
I15
sg21
I1
sg22
I6
sg23
I2
sg24
I4
sg25
I0
sg26
I5
ssa(dp2951
g7
(dp2952
g9
I1
sg10
I5
ssg11
S'src.0.(1,2,3).4.dst'
p2953
sg13
I1182180
sg14
(dp2954
g18
I99999999
ssg19
(dp2955
g9
F1.0
sg10
F1.0
sg21
F1.0
sg22
F1.0
sg23
F1.0
sg24
F1.0
sg26
F1.0
ssg27
(dp2956
g9
I1
sg10
I5
sg21
I4
sg22
I1
sg23
I3
sg24
I6
sg26
I0
ssa(dp2957
g7
(dp2958
g9
I6
sg10
I20
ssg11
S'src.0.(1,2,3).dst'
p2959
sg13
I7036303
sg14
(dp2960
g18
I99999999
ssg19
(dp2961
g9
F1.0
sg10
F1.0
sg21
F1.0
sg22
F1.0
sg23
F1.0
sg24
F1.0
ssg27
(dp2962
g9
I6
sg10
I20
sg21
I3
sg22
I4
sg23
I1
sg24
I5
ssa(dp2963
g7
(dp2964
g9
I5
sg10
I6
ssg11
S'src.0.(1,2).dst'
p2965
sg13
I2333342
sg14
(dp2966
g18
I99999999
ssg19
(dp2967
g21
F1.0
sg9
F1.0
sg10
F1.0
sg24
F1.0
sg22
F1.0
ssg27
(dp2968
g21
I4
sg9
I5
sg10
I6
sg24
I3
sg22
I1
ssa(dp2969
g7
(dp2970
g9
I10
sg10
I19
ssg11
S'src.0.(1,2,3).4.5.dst'
p2971
sg13
I5849629
sg14
(dp2972
g18
I99999999
ssg19
(dp2973
g9
F1.0
sg10
F1.0
sg21
F1.0
sg22
F1.0
sg23
F1.0
sg24
F1.0
sg25
F1.0
sg26
F1.0
ssg27
(dp2974
g9
I10
sg10
I19
sg21
I4
sg22
I0
sg23
I1
sg24
I5
sg25
I3
sg26
I6
ssa(dp2975
g7
(dp2976
g9
I15
sg10
I20
ssg11
S'src.0.(1,2,3).4.dst'
p2977
sg13
I25342157
sg14
(dp2978
g18
I99999999
ssg19
(dp2979
g9
F1.0
sg10
F1.0
sg21
F1.0
sg22
F1.0
sg23
F1.0
sg24
F1.0
sg26
F1.0
ssg27
(dp2980
g9
I15
sg10
I20
sg21
I0
sg22
I4
sg23
I5
sg24
I2
sg26
I6
ssa(dp2981
g7
(dp2982
g9
I11
sg10
I16
ssg11
S'src.0.(1,2).dst'
p2983
sg13
I4189120
sg14
(dp2984
g18
I99999999
ssg19
(dp2985
g21
F1.0
sg9
F1.0
sg10
F1.0
sg24
F1.0
sg22
F1.0
ssg27
(dp2986
g21
I1
sg9
I11
sg10
I16
sg24
I2
sg22
I3
ssa(dp2987
g7
(dp2988
g9
I5
sg10
I6
ssg11
S'src.0.(1,2).dst'
p2989
sg13
I2333342
sg14
(dp2990
g18
I99999999
ssg19
(dp2991
g21
F1.0
sg9
F1.0
sg10
F1.0
sg24
F1.0
sg22
F1.0
ssg27
(dp2992
g21
I4
sg9
I5
sg10
I6
sg24
I3
sg22
I1
ssa(dp2993
g7
(dp2994
g9
I3
sg10
I15
ssg11
S'src.0.(1,2,3).4.dst'
p2995
sg13
I1440795
sg14
(dp2996
g18
I99999999
ssg19
(dp2997
g9
F1.0
sg10
F1.0
sg21
F1.0
sg22
F1.0
sg23
F1.0
sg24
F1.0
sg26
F1.0
ssg27
(dp2998
g9
I3
sg10
I15
sg21
I5
sg22
I2
sg23
I3
sg24
I1
sg26
I6
ssa(dp2999
g7
(dp3000
g9
I15
sg10
I19
ssg11
S'src.0.(1,2).dst'
p3001
sg13
I10081440
sg14
(dp3002
g18
I99999999
ssg19
(dp3003
g21
F1.0
sg9
F1.0
sg10
F1.0
sg24
F1.0
sg22
F1.0
ssg27
(dp3004
g21
I5
sg9
I15
sg10
I19
sg24
I4
sg22
I0
ssa(dp3005
g7
(dp3006
g9
I6
sg10
I19
ssg11
S'src.0.(1,2).dst'
p3007
sg13
I3864387
sg14
(dp3008
g18
I99999999
ssg19
(dp3009
g21
F1.0
sg9
F1.0
sg10
F1.0
sg24
F1.0
sg22
F1.0
ssg27
(dp3010
g21
I4
sg9
I6
sg10
I19
sg24
I5
sg22
I2
ssa(dp3011
g7
(dp3012
g9
I10
sg10
I11
ssg11
S'src.0.(1,2).dst'
p3013
sg13
I977985
sg14
(dp3014
g18
I99999999
ssg19
(dp3015
g21
F1.0
sg9
F1.0
sg10
F1.0
sg24
F1.0
sg22
F1.0
ssg27
(dp3016
g21
I1
sg9
I10
sg10
I11
sg24
I6
sg22
I2
ssa(dp3017
g7
(dp3018
g9
I15
sg10
I17
ssg11
S'src.0.(1,2,3).4.dst'
p3019
sg13
I2996760
sg14
(dp3020
g18
I99999999
ssg19
(dp3021
g9
F1.0
sg10
F1.0
sg21
F1.0
sg22
F1.0
sg23
F1.0
sg24
F1.0
sg26
F1.0
ssg27
(dp3022
g9
I15
sg10
I17
sg21
I1
sg22
I3
sg23
I2
sg24
I5
sg26
I6
ssa(dp3023
g7
(dp3024
g9
I11
sg10
I14
ssg11
S'src.0.(1,2).dst'
p3025
sg13
I1284694
sg14
(dp3026
g18
I99999999
ssg19
(dp3027
g21
F1.0
sg9
F1.0
sg10
F1.0
sg24
F1.0
sg22
F1.0
ssg27
(dp3028
g21
I1
sg9
I11
sg10
I14
sg24
I4
sg22
I0
ssa(dp3029
g7
(dp3030
g9
I6
sg10
I16
ssg11
S'src.0.(1,2,3).4.5.dst'
p3031
sg13
I5501332
sg14
(dp3032
g18
I99999999
ssg19
(dp3033
g9
F1.0
sg10
F1.0
sg21
F1.0
sg22
F1.0
sg23
F1.0
sg24
F1.0
sg25
F1.0
sg26
F1.0
ssg27
(dp3034
g9
I6
sg10
I16
sg21
I1
sg22
I4
sg23
I0
sg24
I6
sg25
I2
sg26
I5
ssa(dp3035
g7
(dp3036
g9
I1
sg10
I7
ssg11
S'src.0.(1,2,3).4.5.dst'
p3037
sg13
I4285602
sg14
(dp3038
g18
I99999999
ssg19
(dp3039
g9
F1.0
sg10
F1.0
sg21
F1.0
sg22
F1.0
sg23
F1.0
sg24
F1.0
sg25
F1.0
sg26
F1.0
ssg27
(dp3040
g9
I1
sg10
I7
sg21
I3
sg22
I0
sg23
I4
sg24
I2
sg25
I6
sg26
I5
ssa(dp3041
g7
(dp3042
g9
I1
sg10
I7
ssg11
S'src.0.(1,2,3).4.dst'
p3043
sg13
I3108988
sg14
(dp3044
g18
I99999999
ssg19
(dp3045
g9
F1.0
sg10
F1.0
sg21
F1.0
sg22
F1.0
sg23
F1.0
sg24
F1.0
sg26
F1.0
ssg27
(dp3046
g9
I1
sg10
I7
sg21
I2
sg22
I5
sg23
I0
sg24
I1
sg26
I6
ssa(dp3047
g7
(dp3048
g9
I11
sg10
I19
ssg11
S'src.0.(1,2).dst'
p3049
sg13
I1245643
sg14
(dp3050
g18
I99999999
ssg19
(dp3051
g21
F1.0
sg9
F1.0
sg10
F1.0
sg24
F1.0
sg22
F1.0
ssg27
(dp3052
g21
I1
sg9
I11
sg10
I19
sg24
I6
sg22
I5
ssa(dp3053
g7
(dp3054
g9
I11
sg10
I13
ssg11
S'src.0.(1,2,3).4.5.dst'
p3055
sg13
I1613326
sg14
(dp3056
g18
I99999999
ssg19
(dp3057
g9
F1.0
sg10
F1.0
sg21
F1.0
sg22
F1.0
sg23
F1.0
sg24
F1.0
sg25
F1.0
sg26
F1.0
ssg27
(dp3058
g9
I11
sg10
I13
sg21
I2
sg22
I6
sg23
I5
sg24
I1
sg25
I3
sg26
I0
ssa(dp3059
g7
(dp3060
g9
I15
sg10
I20
ssg11
S'src.0.(1,2,3).4.5.dst'
p3061
sg13
I32411037
sg14
(dp3062
g18
I99999999
ssg19
(dp3063
g9
F1.0
sg10
F1.0
sg21
F1.0
sg22
F1.0
sg23
F1.0
sg24
F1.0
sg25
F1.0
sg26
F1.0
ssg27
(dp3064
g9
I15
sg10
I20
sg21
I3
sg22
I6
sg23
I5
sg24
I2
sg25
I0
sg26
I4
ssa(dp3065
g7
(dp3066
g9
I11
sg10
I20
ssg11
S'src.0.(1,2,3).dst'
p3067
sg13
I1203371
sg14
(dp3068
g18
I99999999
ssg19
(dp3069
g9
F1.0
sg10
F1.0
sg21
F1.0
sg22
F1.0
sg23
F1.0
sg24
F1.0
ssg27
(dp3070
g9
I11
sg10
I20
sg21
I0
sg22
I6
sg23
I1
sg24
I2
ssa(dp3071
g7
(dp3072
g9
I11
sg10
I20
ssg11
S'src.0.(1,2,3).dst'
p3073
sg13
I3004715
sg14
(dp3074
g18
I99999999
ssg19
(dp3075
g9
F1.0
sg10
F1.0
sg21
F1.0
sg22
F1.0
sg23
F1.0
sg24
F1.0
ssg27
(dp3076
g9
I11
sg10
I20
sg21
I4
sg22
I6
sg23
I5
sg24
I0
ssa(dp3077
g7
(dp3078
g9
I15
sg10
I20
ssg11
S'src.0.(1,2,3).4.dst'
p3079
sg13
I25342157
sg14
(dp3080
g18
I99999999
ssg19
(dp3081
g9
F1.0
sg10
F1.0
sg21
F1.0
sg22
F1.0
sg23
F1.0
sg24
F1.0
sg26
F1.0
ssg27
(dp3082
g9
I15
sg10
I20
sg21
I0
sg22
I4
sg23
I5
sg24
I2
sg26
I6
ssa(dp3083
g7
(dp3084
g9
I13
sg10
I15
ssg11
S'src.0.(1,2,3).4.dst'
p3085
sg13
I1797075
sg14
(dp3086
g18
I99999999
ssg19
(dp3087
g9
F1.0
sg10
F1.0
sg21
F1.0
sg22
F1.0
sg23
F1.0
sg24
F1.0
sg26
F1.0
ssg27
(dp3088
g9
I13
sg10
I15
sg21
I3
sg22
I2
sg23
I0
sg24
I4
sg26
I5
ssa(dp3089
g7
(dp3090
g9
I15
sg10
I16
ssg11
S'src.0.(1,2,3).4.dst'
p3091
sg13
I9028917
sg14
(dp3092
g18
I99999999
ssg19
(dp3093
g9
F1.0
sg10
F1.0
sg21
F1.0
sg22
F1.0
sg23
F1.0
sg24
F1.0
sg26
F1.0
ssg27
(dp3094
g9
I15
sg10
I16
sg21
I4
sg22
I2
sg23
I6
sg24
I0
sg26
I1
ssa(dp3095
g7
(dp3096
g9
I11
sg10
I13
ssg11
S'src.0.(1,2,3).4.5.dst'
p3097
sg13
I1613326
sg14
(dp3098
g18
I99999999
ssg19
(dp3099
g9
F1.0
sg10
F1.0
sg21
F1.0
sg22
F1.0
sg23
F1.0
sg24
F1.0
sg25
F1.0
sg26
F1.0
ssg27
(dp3100
g9
I11
sg10
I13
sg21
I2
sg22
I6
sg23
I5
sg24
I1
sg25
I3
sg26
I0
ssa(dp3101
g7
(dp3102
g9
I3
sg10
I15
ssg11
S'src.0.(1,2,3).4.dst'
p3103
sg13
I1976858
sg14
(dp3104
g18
I99999999
ssg19
(dp3105
g9
F1.0
sg10
F1.0
sg21
F1.0
sg22
F1.0
sg23
F1.0
sg24
F1.0
sg26
F1.0
ssg27
(dp3106
g9
I3
sg10
I15
sg21
I0
sg22
I3
sg23
I5
sg24
I6
sg26
I4
ssa(dp3107
g7
(dp3108
g9
I1
sg10
I15
ssg11
S'src.0.(1,2,3).4.5.dst'
p3109
sg13
I11769774
sg14
(dp3110
g18
I99999999
ssg19
(dp3111
g9
F1.0
sg10
F1.0
sg21
F1.0
sg22
F1.0
sg23
F1.0
sg24
F1.0
sg25
F1.0
sg26
F1.0
ssg27
(dp3112
g9
I1
sg10
I15
sg21
I2
sg22
I6
sg23
I0
sg24
I5
sg25
I3
sg26
I1
ssa(dp3113
g7
(dp3114
g9
I13
sg10
I15
ssg11
S'src.0.(1,2,3).4.5.dst'
p3115
sg13
I837621
sg14
(dp3116
g18
I99999999
ssg19
(dp3117
g9
F1.0
sg10
F1.0
sg21
F1.0
sg22
F1.0
sg23
F1.0
sg24
F1.0
sg25
F1.0
sg26
F1.0
ssg27
(dp3118
g9
I13
sg10
I15
sg21
I4
sg22
I5
sg23
I6
sg24
I2
sg25
I1
sg26
I3
ssa(dp3119
g7
(dp3120
g9
I14
sg10
I20
ssg11
S'src.0.(1,2,3).4.dst'
p3121
sg13
I4747554
sg14
(dp3122
g18
I99999999
ssg19
(dp3123
g9
F1.0
sg10
F1.0
sg21
F1.0
sg22
F1.0
sg23
F1.0
sg24
F1.0
sg26
F1.0
ssg27
(dp3124
g9
I14
sg10
I20
sg21
I3
sg22
I4
sg23
I6
sg24
I2
sg26
I5
ssa(dp3125
g7
(dp3126
g9
I6
sg10
I13
ssg11
S'src.0.(1,2,3).4.5.dst'
p3127
sg13
I1631169
sg14
(dp3128
g18
I99999999
ssg19
(dp3129
g9
F1.0
sg10
F1.0
sg21
F1.0
sg22
F1.0
sg23
F1.0
sg24
F1.0
sg25
F1.0
sg26
F1.0
ssg27
(dp3130
g9
I6
sg10
I13
sg21
I4
sg22
I5
sg23
I2
sg24
I6
sg25
I1
sg26
I3
ssa(dp3131
g7
(dp3132
g9
I6
sg10
I8
ssg11
S'src.0.(1,2).dst'
p3133
sg13
I7384842
sg14
(dp3134
g18
I99999999
ssg19
(dp3135
g21
F1.0
sg9
F1.0
sg10
F1.0
sg24
F1.0
sg22
F1.0
ssg27
(dp3136
g21
I1
sg9
I6
sg10
I8
sg24
I4
sg22
I6
ssa(dp3137
g7
(dp3138
g9
I11
sg10
I15
ssg11
S'src.0.(1,2,3).4.5.dst'
p3139
sg13
I5154285
sg14
(dp3140
g18
I99999999
ssg19
(dp3141
g9
F1.0
sg10
F1.0
sg21
F1.0
sg22
F1.0
sg23
F1.0
sg24
F1.0
sg25
F1.0
sg26
F1.0
ssg27
(dp3142
g9
I11
sg10
I15
sg21
I4
sg22
I5
sg23
I1
sg24
I3
sg25
I2
sg26
I6
ssa(dp3143
g7
(dp3144
g9
I12
sg10
I14
ssg11
S'src.0.(1,2,3).4.5.dst'
p3145
sg13
I1440375
sg14
(dp3146
g18
I99999999
ssg19
(dp3147
g9
F1.0
sg10
F1.0
sg21
F1.0
sg22
F1.0
sg23
F1.0
sg24
F1.0
sg25
F1.0
sg26
F1.0
ssg27
(dp3148
g9
I12
sg10
I14
sg21
I5
sg22
I0
sg23
I4
sg24
I1
sg25
I3
sg26
I2
ssa(dp3149
g7
(dp3150
g9
I5
sg10
I6
ssg11
S'src.0.(1,2).dst'
p3151
sg13
I2333342
sg14
(dp3152
g18
I99999999
ssg19
(dp3153
g21
F1.0
sg9
F1.0
sg10
F1.0
sg24
F1.0
sg22
F1.0
ssg27
(dp3154
g21
I4
sg9
I5
sg10
I6
sg24
I3
sg22
I1
ssa(dp3155
g7
(dp3156
g9
I6
sg10
I16
ssg11
S'src.0.(1,2,3).dst'
p3157
sg13
I5301783
sg14
(dp3158
g18
I99999999
ssg19
(dp3159
g9
F1.0
sg10
F1.0
sg21
F1.0
sg22
F1.0
sg23
F1.0
sg24
F1.0
ssg27
(dp3160
g9
I6
sg10
I16
sg21
I5
sg22
I4
sg23
I6
sg24
I1
ssa(dp3161
g7
(dp3162
g9
I9
sg10
I14
ssg11
S'src.0.(1,2).dst'
p3163
sg13
I1468262
sg14
(dp3164
g18
I99999999
ssg19
(dp3165
g21
F1.0
sg9
F1.0
sg10
F1.0
sg24
F1.0
sg22
F1.0
ssg27
(dp3166
g21
I5
sg9
I9
sg10
I14
sg24
I4
sg22
I0
ssa(dp3167
g7
(dp3168
g9
I4
sg10
I11
ssg11
S'src.0.(1,2,3).4.dst'
p3169
sg13
I815196
sg14
(dp3170
g18
I99999999
ssg19
(dp3171
g9
F1.0
sg10
F1.0
sg21
F1.0
sg22
F1.0
sg23
F1.0
sg24
F1.0
sg26
F1.0
ssg27
(dp3172
g9
I4
sg10
I11
sg21
I3
sg22
I1
sg23
I6
sg24
I2
sg26
I4
ssa(dp3173
g7
(dp3174
g9
I9
sg10
I15
ssg11
S'src.0.(1,2,3).4.5.dst'
p3175
sg13
I5353702
sg14
(dp3176
g18
I99999999
ssg19
(dp3177
g9
F1.0
sg10
F1.0
sg21
F1.0
sg22
F1.0
sg23
F1.0
sg24
F1.0
sg25
F1.0
sg26
F1.0
ssg27
(dp3178
g9
I9
sg10
I15
sg21
I1
sg22
I0
sg23
I2
sg24
I4
sg25
I3
sg26
I6
ssa(dp3179
g7
(dp3180
g9
I8
sg10
I15
ssg11
S'src.0.(1,2,3).4.dst'
p3181
sg13
I10006275
sg14
(dp3182
g18
I99999999
ssg19
(dp3183
g9
F1.0
sg10
F1.0
sg21
F1.0
sg22
F1.0
sg23
F1.0
sg24
F1.0
sg26
F1.0
ssg27
(dp3184
g9
I8
sg10
I15
sg21
I5
sg22
I6
sg23
I2
sg24
I4
sg26
I0
ssa(dp3185
g7
(dp3186
g9
I15
sg10
I20
ssg11
S'src.0.(1,2,3).dst'
p3187
sg13
I18742960
sg14
(dp3188
g18
I99999999
ssg19
(dp3189
g9
F1.0
sg10
F1.0
sg21
F1.0
sg22
F1.0
sg23
F1.0
sg24
F1.0
ssg27
(dp3190
g9
I15
sg10
I20
sg21
I3
sg22
I5
sg23
I1
sg24
I2
ssa(dp3191
g7
(dp3192
g9
I11
sg10
I16
ssg11
S'src.0.(1,2,3).4.dst'
p3193
sg13
I1219329
sg14
(dp3194
g18
I99999999
ssg19
(dp3195
g9
F1.0
sg10
F1.0
sg21
F1.0
sg22
F1.0
sg23
F1.0
sg24
F1.0
sg26
F1.0
ssg27
(dp3196
g9
I11
sg10
I16
sg21
I2
sg22
I4
sg23
I0
sg24
I3
sg26
I1
ssa(dp3197
g7
(dp3198
g9
I1
sg10
I7
ssg11
S'src.0.(1,2,3).4.dst'
p3199
sg13
I3765065
sg14
(dp3200
g18
I99999999
ssg19
(dp3201
g9
F1.0
sg10
F1.0
sg21
F1.0
sg22
F1.0
sg23
F1.0
sg24
F1.0
sg26
F1.0
ssg27
(dp3202
g9
I1
sg10
I7
sg21
I5
sg22
I3
sg23
I2
sg24
I4
sg26
I0
ssa(dp3203
g7
(dp3204
g9
I7
sg10
I19
ssg11
S'src.0.(1,2).dst'
p3205
sg13
I6428818
sg14
(dp3206
g18
I99999999
ssg19
(dp3207
g21
F1.0
sg9
F1.0
sg10
F1.0
sg24
F1.0
sg22
F1.0
ssg27
(dp3208
g21
I5
sg9
I7
sg10
I19
sg24
I1
sg22
I4
ssa(dp3209
g7
(dp3210
g9
I9
sg10
I15
ssg11
S'src.0.(1,2,3).4.5.dst'
p3211
sg13
I5353702
sg14
(dp3212
g18
I99999999
ssg19
(dp3213
g9
F1.0
sg10
F1.0
sg21
F1.0
sg22
F1.0
sg23
F1.0
sg24
F1.0
sg25
F1.0
sg26
F1.0
ssg27
(dp3214
g9
I9
sg10
I15
sg21
I1
sg22
I0
sg23
I2
sg24
I4
sg25
I3
sg26
I6
ssa(dp3215
g7
(dp3216
g9
I11
sg10
I17
ssg11
S'src.0.(1,2,3).4.5.dst'
p3217
sg13
I1695050
sg14
(dp3218
g18
I99999999
ssg19
(dp3219
g9
F1.0
sg10
F1.0
sg21
F1.0
sg22
F1.0
sg23
F1.0
sg24
F1.0
sg25
F1.0
sg26
F1.0
ssg27
(dp3220
g9
I11
sg10
I17
sg21
I0
sg22
I1
sg23
I3
sg24
I6
sg25
I2
sg26
I4
ssa(dp3221
g7
(dp3222
g9
I14
sg10
I19
ssg11
S'src.0.(1,2).dst'
p3223
sg13
I4665192
sg14
(dp3224
g18
I99999999
ssg19
(dp3225
g21
F1.0
sg9
F1.0
sg10
F1.0
sg24
F1.0
sg22
F1.0
ssg27
(dp3226
g21
I3
sg9
I14
sg10
I19
sg24
I6
sg22
I4
ssa(dp3227
g7
(dp3228
g9
I6
sg10
I16
ssg11
S'src.0.(1,2,3).dst'
p3229
sg13
I5301783
sg14
(dp3230
g18
I99999999
ssg19
(dp3231
g9
F1.0
sg10
F1.0
sg21
F1.0
sg22
F1.0
sg23
F1.0
sg24
F1.0
ssg27
(dp3232
g9
I6
sg10
I16
sg21
I5
sg22
I4
sg23
I6
sg24
I1
ssa(dp3233
g7
(dp3234
g9
I13
sg10
I15
ssg11
S'src.0.(1,2).dst'
p3235
sg13
I5527630
sg14
(dp3236
g18
I99999999
ssg19
(dp3237
g21
F1.0
sg9
F1.0
sg10
F1.0
sg24
F1.0
sg22
F1.0
ssg27
(dp3238
g21
I6
sg9
I13
sg10
I15
sg24
I4
sg22
I2
ssa(dp3239
g7
(dp3240
g9
I10
sg10
I15
ssg11
S'src.0.(1,2,3).4.dst'
p3241
sg13
I6394862
sg14
(dp3242
g18
I99999999
ssg19
(dp3243
g9
F1.0
sg10
F1.0
sg21
F1.0
sg22
F1.0
sg23
F1.0
sg24
F1.0
sg26
F1.0
ssg27
(dp3244
g9
I10
sg10
I15
sg21
I1
sg22
I3
sg23
I4
sg24
I6
sg26
I2
ssa(dp3245
g7
(dp3246
g9
I9
sg10
I16
ssg11
S'src.0.(1,2,3).dst'
p3247
sg13
I998622
sg14
(dp3248
g18
I99999999
ssg19
(dp3249
g9
F1.0
sg10
F1.0
sg21
F1.0
sg22
F1.0
sg23
F1.0
sg24
F1.0
ssg27
(dp3250
g9
I9
sg10
I16
sg21
I4
sg22
I6
sg23
I2
sg24
I0
ssa(dp3251
g7
(dp3252
g9
I15
sg10
I16
ssg11
S'src.0.(1,2,3).4.dst'
p3253
sg13
I9028917
sg14
(dp3254
g18
I99999999
ssg19
(dp3255
g9
F1.0
sg10
F1.0
sg21
F1.0
sg22
F1.0
sg23
F1.0
sg24
F1.0
sg26
F1.0
ssg27
(dp3256
g9
I15
sg10
I16
sg21
I4
sg22
I2
sg23
I6
sg24
I0
sg26
I1
ssa(dp3257
g7
(dp3258
g9
I9
sg10
I15
ssg11
S'src.0.(1,2).dst'
p3259
sg13
I7670213
sg14
(dp3260
g18
I99999999
ssg19
(dp3261
g21
F1.0
sg9
F1.0
sg10
F1.0
sg24
F1.0
sg22
F1.0
ssg27
(dp3262
g21
I5
sg9
I9
sg10
I15
sg24
I4
sg22
I6
ssa(dp3263
g7
(dp3264
g9
I6
sg10
I8
ssg11
S'src.0.(1,2,3).4.dst'
p3265
sg13
I26334480
sg14
(dp3266
g18
I99999999
ssg19
(dp3267
g9
F1.0
sg10
F1.0
sg21
F1.0
sg22
F1.0
sg23
F1.0
sg24
F1.0
sg26
F1.0
ssg27
(dp3268
g9
I6
sg10
I8
sg21
I0
sg22
I3
sg23
I2
sg24
I1
sg26
I6
ssa(dp3269
g7
(dp3270
g9
I14
sg10
I17
ssg11
S'src.0.(1,2,3).dst'
p3271
sg13
I4920487
sg14
(dp3272
g18
I99999999
ssg19
(dp3273
g9
F1.0
sg10
F1.0
sg21
F1.0
sg22
F1.0
sg23
F1.0
sg24
F1.0
ssg27
(dp3274
g9
I14
sg10
I17
sg21
I4
sg22
I2
sg23
I3
sg24
I6
ssa(dp3275
g7
(dp3276
g9
I10
sg10
I19
ssg11
S'src.0.(1,2,3).4.5.dst'
p3277
sg13
I5849629
sg14
(dp3278
g18
I99999999
ssg19
(dp3279
g9
F1.0
sg10
F1.0
sg21
F1.0
sg22
F1.0
sg23
F1.0
sg24
F1.0
sg25
F1.0
sg26
F1.0
ssg27
(dp3280
g9
I10
sg10
I19
sg21
I4
sg22
I0
sg23
I1
sg24
I5
sg25
I3
sg26
I6
ssa(dp3281
g7
(dp3282
g9
I4
sg10
I8
ssg11
S'src.0.(1,2,3).4.dst'
p3283
sg13
I949227
sg14
(dp3284
g18
I99999999
ssg19
(dp3285
g9
F1.0
sg10
F1.0
sg21
F1.0
sg22
F1.0
sg23
F1.0
sg24
F1.0
sg26
F1.0
ssg27
(dp3286
g9
I4
sg10
I8
sg21
I0
sg22
I4
sg23
I6
sg24
I3
sg26
I1
ssa(dp3287
g7
(dp3288
g9
I6
sg10
I15
ssg11
S'src.0.(1,2,3).dst'
p3289
sg13
I17977963
sg14
(dp3290
g18
I99999999
ssg19
(dp3291
g9
F1.0
sg10
F1.0
sg21
F1.0
sg22
F1.0
sg23
F1.0
sg24
F1.0
ssg27
(dp3292
g9
I6
sg10
I15
sg21
I6
sg22
I4
sg23
I2
sg24
I1
ssa(dp3293
g7
(dp3294
g9
I10
sg10
I15
ssg11
S'src.0.(1,2,3).4.dst'
p3295
sg13
I4442472
sg14
(dp3296
g18
I99999999
ssg19
(dp3297
g9
F1.0
sg10
F1.0
sg21
F1.0
sg22
F1.0
sg23
F1.0
sg24
F1.0
sg26
F1.0
ssg27
(dp3298
g9
I10
sg10
I15
sg21
I1
sg22
I3
sg23
I4
sg24
I6
sg26
I0
ssa(dp3299
g7
(dp3300
g9
I10
sg10
I20
ssg11
S'src.0.(1,2,3).4.dst'
p3301
sg13
I1762123
sg14
(dp3302
g18
I99999999
ssg19
(dp3303
g9
F1.0
sg10
F1.0
sg21
F1.0
sg22
F1.0
sg23
F1.0
sg24
F1.0
sg26
F1.0
ssg27
(dp3304
g9
I10
sg10
I20
sg21
I5
sg22
I2
sg23
I0
sg24
I6
sg26
I4
ssa(dp3305
g7
(dp3306
g9
I6
sg10
I11
ssg11
S'src.0.(1,2,3).4.5.dst'
p3307
sg13
I4666308
sg14
(dp3308
g18
I99999999
ssg19
(dp3309
g9
F1.0
sg10
F1.0
sg21
F1.0
sg22
F1.0
sg23
F1.0
sg24
F1.0
sg25
F1.0
sg26
F1.0
ssg27
(dp3310
g9
I6
sg10
I11
sg21
I3
sg22
I5
sg23
I6
sg24
I2
sg25
I4
sg26
I0
ssa(dp3311
g7
(dp3312
g9
I15
sg10
I17
ssg11
S'src.0.(1,2,3).4.5.dst'
p3313
sg13
I2440939
sg14
(dp3314
g18
I99999999
ssg19
(dp3315
g9
F1.0
sg10
F1.0
sg21
F1.0
sg22
F1.0
sg23
F1.0
sg24
F1.0
sg25
F1.0
sg26
F1.0
ssg27
(dp3316
g9
I15
sg10
I17
sg21
I6
sg22
I2
sg23
I4
sg24
I5
sg25
I1
sg26
I0
ssa(dp3317
g7
(dp3318
g9
I15
sg10
I20
ssg11
S'src.0.(1,2,3).4.5.dst'
p3319
sg13
I11730820
sg14
(dp3320
g18
I99999999
ssg19
(dp3321
g9
F1.0
sg10
F1.0
sg21
F1.0
sg22
F1.0
sg23
F1.0
sg24
F1.0
sg25
F1.0
sg26
F1.0
ssg27
(dp3322
g9
I15
sg10
I20
sg21
I3
sg22
I5
sg23
I2
sg24
I6
sg25
I4
sg26
I1
ssa(dp3323
g7
(dp3324
g9
I6
sg10
I8
ssg11
S'src.0.(1,2).dst'
p3325
sg13
I7384842
sg14
(dp3326
g18
I99999999
ssg19
(dp3327
g21
F1.0
sg9
F1.0
sg10
F1.0
sg24
F1.0
sg22
F1.0
ssg27
(dp3328
g21
I1
sg9
I6
sg10
I8
sg24
I4
sg22
I6
ssa(dp3329
g7
(dp3330
g9
I10
sg10
I17
ssg11
S'src.0.(1,2).dst'
p3331
sg13
I2302052
sg14
(dp3332
g18
I99999999
ssg19
(dp3333
g21
F1.0
sg9
F1.0
sg10
F1.0
sg24
F1.0
sg22
F1.0
ssg27
(dp3334
g21
I6
sg9
I10
sg10
I17
sg24
I2
sg22
I1
ssa(dp3335
g7
(dp3336
g9
I15
sg10
I17
ssg11
S'src.0.(1,2,3).4.dst'
p3337
sg13
I6578460
sg14
(dp3338
g18
I99999999
ssg19
(dp3339
g9
F1.0
sg10
F1.0
sg21
F1.0
sg22
F1.0
sg23
F1.0
sg24
F1.0
sg26
F1.0
ssg27
(dp3340
g9
I15
sg10
I17
sg21
I3
sg22
I0
sg23
I5
sg24
I4
sg26
I6
ssa(dp3341
g7
(dp3342
g9
I15
sg10
I16
ssg11
S'src.0.(1,2,3).dst'
p3343
sg13
I1498346
sg14
(dp3344
g18
I99999999
ssg19
(dp3345
g9
F1.0
sg10
F1.0
sg21
F1.0
sg22
F1.0
sg23
F1.0
sg24
F1.0
ssg27
(dp3346
g9
I15
sg10
I16
sg21
I1
sg22
I5
sg23
I6
sg24
I0
ssa(dp3347
g7
(dp3348
g9
I11
sg10
I19
ssg11
S'src.0.(1,2,3).4.dst'
p3349
sg13
I1530665
sg14
(dp3350
g18
I99999999
ssg19
(dp3351
g9
F1.0
sg10
F1.0
sg21
F1.0
sg22
F1.0
sg23
F1.0
sg24
F1.0
sg26
F1.0
ssg27
(dp3352
g9
I11
sg10
I19
sg21
I3
sg22
I2
sg23
I4
sg24
I5
sg26
I6
ssa(dp3353
g7
(dp3354
g9
I5
sg10
I14
ssg11
S'src.0.(1,2,3).4.5.dst'
p3355
sg13
I1641941
sg14
(dp3356
g18
I99999999
ssg19
(dp3357
g9
F1.0
sg10
F1.0
sg21
F1.0
sg22
F1.0
sg23
F1.0
sg24
F1.0
sg25
F1.0
sg26
F1.0
ssg27
(dp3358
g9
I5
sg10
I14
sg21
I3
sg22
I4
sg23
I1
sg24
I5
sg25
I2
sg26
I0
ssa(dp3359
g7
(dp3360
g9
I16
sg10
I17
ssg11
S'src.0.(1,2).dst'
p3361
sg13
I894974
sg14
(dp3362
g18
I99999999
ssg19
(dp3363
g21
F1.0
sg9
F1.0
sg10
F1.0
sg24
F1.0
sg22
F1.0
ssg27
(dp3364
g21
I5
sg9
I16
sg10
I17
sg24
I2
sg22
I1
ssa(dp3365
g7
(dp3366
g9
I6
sg10
I20
ssg11
S'src.0.(1,2,3).4.dst'
p3367
sg13
I5663041
sg14
(dp3368
g18
I99999999
ssg19
(dp3369
g9
F1.0
sg10
F1.0
sg21
F1.0
sg22
F1.0
sg23
F1.0
sg24
F1.0
sg26
F1.0
ssg27
(dp3370
g9
I6
sg10
I20
sg21
I2
sg22
I0
sg23
I6
sg24
I4
sg26
I1
ssa(dp3371
g7
(dp3372
g9
I5
sg10
I15
ssg11
S'src.0.(1,2,3).dst'
p3373
sg13
I3446220
sg14
(dp3374
g18
I99999999
ssg19
(dp3375
g9
F1.0
sg10
F1.0
sg21
F1.0
sg22
F1.0
sg23
F1.0
sg24
F1.0
ssg27
(dp3376
g9
I5
sg10
I15
sg21
I4
sg22
I3
sg23
I2
sg24
I6
ssa(dp3377
g7
(dp3378
g9
I12
sg10
I14
ssg11
S'src.0.(1,2,3).dst'
p3379
sg13
I1045590
sg14
(dp3380
g18
I99999999
ssg19
(dp3381
g9
F1.0
sg10
F1.0
sg21
F1.0
sg22
F1.0
sg23
F1.0
sg24
F1.0
ssg27
(dp3382
g9
I12
sg10
I14
sg21
I4
sg22
I6
sg23
I3
sg24
I0
ssa(dp3383
g7
(dp3384
g9
I11
sg10
I20
ssg11
S'src.0.(1,2,3).4.5.dst'
p3385
sg13
I1130854
sg14
(dp3386
g18
I99999999
ssg19
(dp3387
g9
F1.0
sg10
F1.0
sg21
F1.0
sg22
F1.0
sg23
F1.0
sg24
F1.0
sg25
F1.0
sg26
F1.0
ssg27
(dp3388
g9
I11
sg10
I20
sg21
I3
sg22
I5
sg23
I1
sg24
I2
sg25
I4
sg26
I0
ssa(dp3389
g7
(dp3390
g9
I1
sg10
I15
ssg11
S'src.0.(1,2).dst'
p3391
sg13
I2284140
sg14
(dp3392
g18
I99999999
ssg19
(dp3393
g21
F1.0
sg9
F1.0
sg10
F1.0
sg24
F1.0
sg22
F1.0
ssg27
(dp3394
g21
I6
sg9
I1
sg10
I15
sg24
I2
sg22
I1
ssa(dp3395
g7
(dp3396
g9
I11
sg10
I14
ssg11
S'src.0.(1,2,3).4.5.dst'
p3397
sg13
I3770268
sg14
(dp3398
g18
I99999999
ssg19
(dp3399
g9
F1.0
sg10
F1.0
sg21
F1.0
sg22
F1.0
sg23
F1.0
sg24
F1.0
sg25
F1.0
sg26
F1.0
ssg27
(dp3400
g9
I11
sg10
I14
sg21
I4
sg22
I1
sg23
I6
sg24
I3
sg25
I0
sg26
I2
ssa(dp3401
g7
(dp3402
g9
I12
sg10
I17
ssg11
S'src.0.(1,2,3).dst'
p3403
sg13
I5862850
sg14
(dp3404
g18
I99999999
ssg19
(dp3405
g9
F1.0
sg10
F1.0
sg21
F1.0
sg22
F1.0
sg23
F1.0
sg24
F1.0
ssg27
(dp3406
g9
I12
sg10
I17
sg21
I0
sg22
I1
sg23
I4
sg24
I2
ssa(dp3407
g7
(dp3408
g9
I1
sg10
I20
ssg11
S'src.0.(1,2).dst'
p3409
sg13
I1049818
sg14
(dp3410
g18
I99999999
ssg19
(dp3411
g21
F1.0
sg9
F1.0
sg10
F1.0
sg24
F1.0
sg22
F1.0
ssg27
(dp3412
g21
I5
sg9
I1
sg10
I20
sg24
I3
sg22
I0
ssa(dp3413
g7
(dp3414
g9
I7
sg10
I16
ssg11
S'src.0.(1,2).dst'
p3415
sg13
I1377177
sg14
(dp3416
g18
I99999999
ssg19
(dp3417
g21
F1.0
sg9
F1.0
sg10
F1.0
sg24
F1.0
sg22
F1.0
ssg27
(dp3418
g21
I6
sg9
I7
sg10
I16
sg24
I0
sg22
I2
ssa(dp3419
g7
(dp3420
g9
I11
sg10
I12
ssg11
S'src.0.(1,2,3).4.5.dst'
p3421
sg13
I2957306
sg14
(dp3422
g18
I99999999
ssg19
(dp3423
g9
F1.0
sg10
F1.0
sg21
F1.0
sg22
F1.0
sg23
F1.0
sg24
F1.0
sg25
F1.0
sg26
F1.0
ssg27
(dp3424
g9
I11
sg10
I12
sg21
I6
sg22
I3
sg23
I5
sg24
I4
sg25
I0
sg26
I2
ssa(dp3425
g7
(dp3426
g9
I7
sg10
I19
ssg11
S'src.0.(1,2,3).dst'
p3427
sg13
I3284884
sg14
(dp3428
g18
I99999999
ssg19
(dp3429
g9
F1.0
sg10
F1.0
sg21
F1.0
sg22
F1.0
sg23
F1.0
sg24
F1.0
ssg27
(dp3430
g9
I7
sg10
I19
sg21
I0
sg22
I4
sg23
I6
sg24
I5
ssa(dp3431
g7
(dp3432
g9
I14
sg10
I15
ssg11
S'src.0.(1,2,3).dst'
p3433
sg13
I6863430
sg14
(dp3434
g18
I99999999
ssg19
(dp3435
g9
F1.0
sg10
F1.0
sg21
F1.0
sg22
F1.0
sg23
F1.0
sg24
F1.0
ssg27
(dp3436
g9
I14
sg10
I15
sg21
I3
sg22
I2
sg23
I5
sg24
I0
ssa(dp3437
g7
(dp3438
g9
I9
sg10
I16
ssg11
S'src.0.(1,2,3).4.5.dst'
p3439
sg13
I818198
sg14
(dp3440
g18
I99999999
ssg19
(dp3441
g9
F1.0
sg10
F1.0
sg21
F1.0
sg22
F1.0
sg23
F1.0
sg24
F1.0
sg25
F1.0
sg26
F1.0
ssg27
(dp3442
g9
I9
sg10
I16
sg21
I6
sg22
I4
sg23
I1
sg24
I2
sg25
I5
sg26
I3
ssa(dp3443
g7
(dp3444
g9
I4
sg10
I15
ssg11
S'src.0.(1,2).dst'
p3445
sg13
I9500472
sg14
(dp3446
g18
I99999999
ssg19
(dp3447
g21
F1.0
sg9
F1.0
sg10
F1.0
sg24
F1.0
sg22
F1.0
ssg27
(dp3448
g21
I1
sg9
I4
sg10
I15
sg24
I6
sg22
I0
ssa(dp3449
g7
(dp3450
g9
I12
sg10
I15
ssg11
S'src.0.(1,2,3).dst'
p3451
sg13
I1060048
sg14
(dp3452
g18
I99999999
ssg19
(dp3453
g9
F1.0
sg10
F1.0
sg21
F1.0
sg22
F1.0
sg23
F1.0
sg24
F1.0
ssg27
(dp3454
g9
I12
sg10
I15
sg21
I6
sg22
I0
sg23
I4
sg24
I5
ssa(dp3455
g7
(dp3456
g9
I12
sg10
I14
ssg11
S'src.0.(1,2,3).4.dst'
p3457
sg13
I958995
sg14
(dp3458
g18
I99999999
ssg19
(dp3459
g9
F1.0
sg10
F1.0
sg21
F1.0
sg22
F1.0
sg23
F1.0
sg24
F1.0
sg26
F1.0
ssg27
(dp3460
g9
I12
sg10
I14
sg21
I5
sg22
I0
sg23
I4
sg24
I2
sg26
I1
ssa(dp3461
g7
(dp3462
g9
I14
sg10
I15
ssg11
S'src.0.(1,2,3).4.5.dst'
p3463
sg13
I6961711
sg14
(dp3464
g18
I99999999
ssg19
(dp3465
g9
F1.0
sg10
F1.0
sg21
F1.0
sg22
F1.0
sg23
F1.0
sg24
F1.0
sg25
F1.0
sg26
F1.0
ssg27
(dp3466
g9
I14
sg10
I15
sg21
I6
sg22
I0
sg23
I3
sg24
I1
sg25
I5
sg26
I2
ssa(dp3467
g7
(dp3468
g9
I14
sg10
I16
ssg11
S'src.0.(1,2).dst'
p3469
sg13
I1934551
sg14
(dp3470
g18
I99999999
ssg19
(dp3471
g21
F1.0
sg9
F1.0
sg10
F1.0
sg24
F1.0
sg22
F1.0
ssg27
(dp3472
g21
I6
sg9
I14
sg10
I16
sg24
I0
sg22
I3
ssa(dp3473
g7
(dp3474
g9
I10
sg10
I11
ssg11
S'src.0.(1,2).dst'
p3475
sg13
I977985
sg14
(dp3476
g18
I99999999
ssg19
(dp3477
g21
F1.0
sg9
F1.0
sg10
F1.0
sg24
F1.0
sg22
F1.0
ssg27
(dp3478
g21
I1
sg9
I10
sg10
I11
sg24
I6
sg22
I2
ssa(dp3479
g7
(dp3480
g9
I6
sg10
I16
ssg11
S'src.0.(1,2).dst'
p3481
sg13
I878901
sg14
(dp3482
g18
I99999999
ssg19
(dp3483
g21
F1.0
sg9
F1.0
sg10
F1.0
sg24
F1.0
sg22
F1.0
ssg27
(dp3484
g21
I6
sg9
I6
sg10
I16
sg24
I3
sg22
I0
ssa(dp3485
g7
(dp3486
g9
I6
sg10
I13
ssg11
S'src.0.(1,2,3).dst'
p3487
sg13
I2710420
sg14
(dp3488
g18
I99999999
ssg19
(dp3489
g9
F1.0
sg10
F1.0
sg21
F1.0
sg22
F1.0
sg23
F1.0
sg24
F1.0
ssg27
(dp3490
g9
I6
sg10
I13
sg21
I4
sg22
I6
sg23
I1
sg24
I3
ssa(dp3491
g7
(dp3492
g9
I13
sg10
I14
ssg11
S'src.0.(1,2,3).4.dst'
p3493
sg13
I815283
sg14
(dp3494
g18
I99999999
ssg19
(dp3495
g9
F1.0
sg10
F1.0
sg21
F1.0
sg22
F1.0
sg23
F1.0
sg24
F1.0
sg26
F1.0
ssg27
(dp3496
g9
I13
sg10
I14
sg21
I5
sg22
I3
sg23
I4
sg24
I1
sg26
I0
ssa(dp3497
g7
(dp3498
g9
I4
sg10
I15
ssg11
S'src.0.(1,2).dst'
p3499
sg13
I6299030
sg14
(dp3500
g18
I99999999
ssg19
(dp3501
g21
F1.0
sg9
F1.0
sg10
F1.0
sg24
F1.0
sg22
F1.0
ssg27
(dp3502
g21
I4
sg9
I4
sg10
I15
sg24
I0
sg22
I3
ssa(dp3503
g7
(dp3504
g9
I6
sg10
I8
ssg11
S'src.0.(1,2).dst'
p3505
sg13
I7384842
sg14
(dp3506
g18
I99999999
ssg19
(dp3507
g21
F1.0
sg9
F1.0
sg10
F1.0
sg24
F1.0
sg22
F1.0
ssg27
(dp3508
g21
I1
sg9
I6
sg10
I8
sg24
I4
sg22
I6
ssa(dp3509
g7
(dp3510
g9
I9
sg10
I14
ssg11
S'src.0.(1,2).dst'
p3511
sg13
I1468262
sg14
(dp3512
g18
I99999999
ssg19
(dp3513
g21
F1.0
sg9
F1.0
sg10
F1.0
sg24
F1.0
sg22
F1.0
ssg27
(dp3514
g21
I5
sg9
I9
sg10
I14
sg24
I4
sg22
I0
ssa(dp3515
g7
(dp3516
g9
I6
sg10
I16
ssg11
S'src.0.(1,2).dst'
p3517
sg13
I878901
sg14
(dp3518
g18
I99999999
ssg19
(dp3519
g21
F1.0
sg9
F1.0
sg10
F1.0
sg24
F1.0
sg22
F1.0
ssg27
(dp3520
g21
I6
sg9
I6
sg10
I16
sg24
I3
sg22
I0
ssa(dp3521
g7
(dp3522
g9
I10
sg10
I13
ssg11
S'src.0.(1,2,3).dst'
p3523
sg13
I31740447
sg14
(dp3524
g18
I99999999
ssg19
(dp3525
g9
F1.0
sg10
F1.0
sg21
F1.0
sg22
F1.0
sg23
F1.0
sg24
F1.0
ssg27
(dp3526
g9
I10
sg10
I13
sg21
I3
sg22
I6
sg23
I5
sg24
I4
ssa(dp3527
g7
(dp3528
g9
I14
sg10
I15
ssg11
S'src.0.(1,2,3).4.5.dst'
p3529
sg13
I6961711
sg14
(dp3530
g18
I99999999
ssg19
(dp3531
g9
F1.0
sg10
F1.0
sg21
F1.0
sg22
F1.0
sg23
F1.0
sg24
F1.0
sg25
F1.0
sg26
F1.0
ssg27
(dp3532
g9
I14
sg10
I15
sg21
I6
sg22
I0
sg23
I3
sg24
I1
sg25
I5
sg26
I2
ssa(dp3533
g7
(dp3534
g9
I11
sg10
I13
ssg11
S'src.0.(1,2,3).4.5.dst'
p3535
sg13
I1613326
sg14
(dp3536
g18
I99999999
ssg19
(dp3537
g9
F1.0
sg10
F1.0
sg21
F1.0
sg22
F1.0
sg23
F1.0
sg24
F1.0
sg25
F1.0
sg26
F1.0
ssg27
(dp3538
g9
I11
sg10
I13
sg21
I2
sg22
I6
sg23
I5
sg24
I1
sg25
I3
sg26
I0
ssa(dp3539
g7
(dp3540
g9
I10
sg10
I14
ssg11
S'src.0.(1,2,3).4.dst'
p3541
sg13
I979170
sg14
(dp3542
g18
I99999999
ssg19
(dp3543
g9
F1.0
sg10
F1.0
sg21
F1.0
sg22
F1.0
sg23
F1.0
sg24
F1.0
sg26
F1.0
ssg27
(dp3544
g9
I10
sg10
I14
sg21
I5
sg22
I0
sg23
I2
sg24
I1
sg26
I3
ssa(dp3545
g7
(dp3546
g9
I1
sg10
I7
ssg11
S'src.0.(1,2,3).4.5.dst'
p3547
sg13
I4285602
sg14
(dp3548
g18
I99999999
ssg19
(dp3549
g9
F1.0
sg10
F1.0
sg21
F1.0
sg22
F1.0
sg23
F1.0
sg24
F1.0
sg25
F1.0
sg26
F1.0
ssg27
(dp3550
g9
I1
sg10
I7
sg21
I3
sg22
I0
sg23
I4
sg24
I2
sg25
I6
sg26
I5
ssa(dp3551
g7
(dp3552
g9
I15
sg10
I16
ssg11
S'src.0.(1,2,3).dst'
p3553
sg13
I1498346
sg14
(dp3554
g18
I99999999
ssg19
(dp3555
g9
F1.0
sg10
F1.0
sg21
F1.0
sg22
F1.0
sg23
F1.0
sg24
F1.0
ssg27
(dp3556
g9
I15
sg10
I16
sg21
I1
sg22
I5
sg23
I6
sg24
I0
ssa(dp3557
g7
(dp3558
g9
I6
sg10
I20
ssg11
S'src.0.(1,2,3).4.5.dst'
p3559
sg13
I2937439
sg14
(dp3560
g18
I99999999
ssg19
(dp3561
g9
F1.0
sg10
F1.0
sg21
F1.0
sg22
F1.0
sg23
F1.0
sg24
F1.0
sg25
F1.0
sg26
F1.0
ssg27
(dp3562
g9
I6
sg10
I20
sg21
I0
sg22
I4
sg23
I6
sg24
I5
sg25
I1
sg26
I2
ssa(dp3563
g7
(dp3564
g9
I6
sg10
I15
ssg11
S'src.0.(1,2,3).dst'
p3565
sg13
I4116448
sg14
(dp3566
g18
I99999999
ssg19
(dp3567
g9
F1.0
sg10
F1.0
sg21
F1.0
sg22
F1.0
sg23
F1.0
sg24
F1.0
ssg27
(dp3568
g9
I6
sg10
I15
sg21
I0
sg22
I4
sg23
I2
sg24
I1
ssa(dp3569
g7
(dp3570
g9
I13
sg10
I15
ssg11
S'src.0.(1,2,3).4.dst'
p3571
sg13
I1797075
sg14
(dp3572
g18
I99999999
ssg19
(dp3573
g9
F1.0
sg10
F1.0
sg21
F1.0
sg22
F1.0
sg23
F1.0
sg24
F1.0
sg26
F1.0
ssg27
(dp3574
g9
I13
sg10
I15
sg21
I3
sg22
I2
sg23
I0
sg24
I4
sg26
I5
ssa(dp3575
g7
(dp3576
g9
I6
sg10
I20
ssg11
S'src.0.(1,2).dst'
p3577
sg13
I3228995
sg14
(dp3578
g18
I99999999
ssg19
(dp3579
g21
F1.0
sg9
F1.0
sg10
F1.0
sg24
F1.0
sg22
F1.0
ssg27
(dp3580
g21
I1
sg9
I6
sg10
I20
sg24
I6
sg22
I3
ssa(dp3581
g7
(dp3582
g9
I12
sg10
I17
ssg11
S'src.0.(1,2,3).dst'
p3583
sg13
I5862850
sg14
(dp3584
g18
I99999999
ssg19
(dp3585
g9
F1.0
sg10
F1.0
sg21
F1.0
sg22
F1.0
sg23
F1.0
sg24
F1.0
ssg27
(dp3586
g9
I12
sg10
I17
sg21
I0
sg22
I1
sg23
I4
sg24
I2
ssa(dp3587
g7
(dp3588
g9
I6
sg10
I16
ssg11
S'src.0.(1,2,3).dst'
p3589
sg13
I5301783
sg14
(dp3590
g18
I99999999
ssg19
(dp3591
g9
F1.0
sg10
F1.0
sg21
F1.0
sg22
F1.0
sg23
F1.0
sg24
F1.0
ssg27
(dp3592
g9
I6
sg10
I16
sg21
I5
sg22
I4
sg23
I6
sg24
I1
ssa(dp3593
g7
(dp3594
g9
I6
sg10
I20
ssg11
S'src.0.(1,2,3).4.5.dst'
p3595
sg13
I3446988
sg14
(dp3596
g18
I99999999
ssg19
(dp3597
g9
F1.0
sg10
F1.0
sg21
F1.0
sg22
F1.0
sg23
F1.0
sg24
F1.0
sg25
F1.0
sg26
F1.0
ssg27
(dp3598
g9
I6
sg10
I20
sg21
I5
sg22
I1
sg23
I2
sg24
I0
sg25
I4
sg26
I3
ssa(dp3599
g7
(dp3600
g9
I5
sg10
I14
ssg11
S'src.0.(1,2,3).dst'
p3601
sg13
I2538692
sg14
(dp3602
g18
I99999999
ssg19
(dp3603
g9
F1.0
sg10
F1.0
sg21
F1.0
sg22
F1.0
sg23
F1.0
sg24
F1.0
ssg27
(dp3604
g9
I5
sg10
I14
sg21
I2
sg22
I0
sg23
I3
sg24
I1
ssa(dp3605
g7
(dp3606
g9
I14
sg10
I17
ssg11
S'src.0.(1,2,3).4.5.dst'
p3607
sg13
I6732345
sg14
(dp3608
g18
I99999999
ssg19
(dp3609
g9
F1.0
sg10
F1.0
sg21
F1.0
sg22
F1.0
sg23
F1.0
sg24
F1.0
sg25
F1.0
sg26
F1.0
ssg27
(dp3610
g9
I14
sg10
I17
sg21
I3
sg22
I2
sg23
I6
sg24
I1
sg25
I0
sg26
I5
ssa(dp3611
g7
(dp3612
g9
I14
sg10
I20
ssg11
S'src.0.(1,2,3).4.dst'
p3613
sg13
I1180626
sg14
(dp3614
g18
I99999999
ssg19
(dp3615
g9
F1.0
sg10
F1.0
sg21
F1.0
sg22
F1.0
sg23
F1.0
sg24
F1.0
sg26
F1.0
ssg27
(dp3616
g9
I14
sg10
I20
sg21
I2
sg22
I1
sg23
I5
sg24
I3
sg26
I0
ssa(dp3617
g7
(dp3618
g9
I6
sg10
I15
ssg11
S'src.0.(1,2,3).dst'
p3619
sg13
I17977963
sg14
(dp3620
g18
I99999999
ssg19
(dp3621
g9
F1.0
sg10
F1.0
sg21
F1.0
sg22
F1.0
sg23
F1.0
sg24
F1.0
ssg27
(dp3622
g9
I6
sg10
I15
sg21
I6
sg22
I4
sg23
I2
sg24
I1
ssa(dp3623
g7
(dp3624
g9
I12
sg10
I15
ssg11
S'src.0.(1,2).dst'
p3625
sg13
I4799916
sg14
(dp3626
g18
I99999999
ssg19
(dp3627
g21
F1.0
sg9
F1.0
sg10
F1.0
sg24
F1.0
sg22
F1.0
ssg27
(dp3628
g21
I5
sg9
I12
sg10
I15
sg24
I6
sg22
I2
ssa(dp3629
g7
(dp3630
g9
I11
sg10
I14
ssg11
S'src.0.(1,2).dst'
p3631
sg13
I1284694
sg14
(dp3632
g18
I99999999
ssg19
(dp3633
g21
F1.0
sg9
F1.0
sg10
F1.0
sg24
F1.0
sg22
F1.0
ssg27
(dp3634
g21
I1
sg9
I11
sg10
I14
sg24
I4
sg22
I0
ssa(dp3635
g7
(dp3636
g9
I6
sg10
I16
ssg11
S'src.0.(1,2,3).4.5.dst'
p3637
sg13
I5501332
sg14
(dp3638
g18
I99999999
ssg19
(dp3639
g9
F1.0
sg10
F1.0
sg21
F1.0
sg22
F1.0
sg23
F1.0
sg24
F1.0
sg25
F1.0
sg26
F1.0
ssg27
(dp3640
g9
I6
sg10
I16
sg21
I1
sg22
I4
sg23
I0
sg24
I6
sg25
I2
sg26
I5
ssa(dp3641
g7
(dp3642
g9
I8
sg10
I15
ssg11
S'src.0.(1,2,3).4.dst'
p3643
sg13
I10006275
sg14
(dp3644
g18
I99999999
ssg19
(dp3645
g9
F1.0
sg10
F1.0
sg21
F1.0
sg22
F1.0
sg23
F1.0
sg24
F1.0
sg26
F1.0
ssg27
(dp3646
g9
I8
sg10
I15
sg21
I5
sg22
I6
sg23
I2
sg24
I4
sg26
I0
ssa(dp3647
g7
(dp3648
g9
I11
sg10
I14
ssg11
S'src.0.(1,2).dst'
p3649
sg13
I3165109
sg14
(dp3650
g18
I99999999
ssg19
(dp3651
g21
F1.0
sg9
F1.0
sg10
F1.0
sg24
F1.0
sg22
F1.0
ssg27
(dp3652
g21
I4
sg9
I11
sg10
I14
sg24
I6
sg22
I3
ssa(dp3653
g7
(dp3654
g9
I14
sg10
I15
ssg11
S'src.0.(1,2,3).dst'
p3655
sg13
I3720795
sg14
(dp3656
g18
I99999999
ssg19
(dp3657
g9
F1.0
sg10
F1.0
sg21
F1.0
sg22
F1.0
sg23
F1.0
sg24
F1.0
ssg27
(dp3658
g9
I14
sg10
I15
sg21
I0
sg22
I5
sg23
I6
sg24
I4
ssa(dp3659
g7
(dp3660
g9
I3
sg10
I15
ssg11
S'src.0.(1,2).dst'
p3661
sg13
I1168878
sg14
(dp3662
g18
I99999999
ssg19
(dp3663
g21
F1.0
sg9
F1.0
sg10
F1.0
sg24
F1.0
sg22
F1.0
ssg27
(dp3664
g21
I3
sg9
I3
sg10
I15
sg24
I4
sg22
I6
ssa(dp3665
g7
(dp3666
g9
I4
sg10
I15
ssg11
S'src.0.(1,2,3).4.dst'
p3667
sg13
I5285815
sg14
(dp3668
g18
I99999999
ssg19
(dp3669
g9
F1.0
sg10
F1.0
sg21
F1.0
sg22
F1.0
sg23
F1.0
sg24
F1.0
sg26
F1.0
ssg27
(dp3670
g9
I4
sg10
I15
sg21
I3
sg22
I5
sg23
I1
sg24
I4
sg26
I6
ssa(dp3671
g7
(dp3672
g9
I6
sg10
I8
ssg11
S'src.0.(1,2,3).4.dst'
p3673
sg13
I26334480
sg14
(dp3674
g18
I99999999
ssg19
(dp3675
g9
F1.0
sg10
F1.0
sg21
F1.0
sg22
F1.0
sg23
F1.0
sg24
F1.0
sg26
F1.0
ssg27
(dp3676
g9
I6
sg10
I8
sg21
I0
sg22
I3
sg23
I2
sg24
I1
sg26
I6
ssa(dp3677
g7
(dp3678
g9
I13
sg10
I15
ssg11
S'src.0.(1,2,3).4.dst'
p3679
sg13
I3382071
sg14
(dp3680
g18
I99999999
ssg19
(dp3681
g9
F1.0
sg10
F1.0
sg21
F1.0
sg22
F1.0
sg23
F1.0
sg24
F1.0
sg26
F1.0
ssg27
(dp3682
g9
I13
sg10
I15
sg21
I3
sg22
I1
sg23
I2
sg24
I0
sg26
I4
ssa(dp3683
g7
(dp3684
g9
I1
sg10
I20
ssg11
S'src.0.(1,2).dst'
p3685
sg13
I1049818
sg14
(dp3686
g18
I99999999
ssg19
(dp3687
g21
F1.0
sg9
F1.0
sg10
F1.0
sg24
F1.0
sg22
F1.0
ssg27
(dp3688
g21
I5
sg9
I1
sg10
I20
sg24
I3
sg22
I0
ssa(dp3689
g7
(dp3690
g9
I12
sg10
I16
ssg11
S'src.0.(1,2).dst'
p3691
sg13
I1490118
sg14
(dp3692
g18
I99999999
ssg19
(dp3693
g21
F1.0
sg9
F1.0
sg10
F1.0
sg24
F1.0
sg22
F1.0
ssg27
(dp3694
g21
I0
sg9
I12
sg10
I16
sg24
I2
sg22
I5
ssa(dp3695
g7
(dp3696
g9
I10
sg10
I15
ssg11
S'src.0.(1,2,3).4.dst'
p3697
sg13
I6394862
sg14
(dp3698
g18
I99999999
ssg19
(dp3699
g9
F1.0
sg10
F1.0
sg21
F1.0
sg22
F1.0
sg23
F1.0
sg24
F1.0
sg26
F1.0
ssg27
(dp3700
g9
I10
sg10
I15
sg21
I1
sg22
I3
sg23
I4
sg24
I6
sg26
I2
ssa(dp3701
g7
(dp3702
g9
I11
sg10
I16
ssg11
S'src.0.(1,2,3).dst'
p3703
sg13
I1719433
sg14
(dp3704
g18
I99999999
ssg19
(dp3705
g9
F1.0
sg10
F1.0
sg21
F1.0
sg22
F1.0
sg23
F1.0
sg24
F1.0
ssg27
(dp3706
g9
I11
sg10
I16
sg21
I0
sg22
I2
sg23
I1
sg24
I3
ssa(dp3707
g7
(dp3708
g9
I15
sg10
I19
ssg11
S'src.0.(1,2).dst'
p3709
sg13
I6181203
sg14
(dp3710
g18
I99999999
ssg19
(dp3711
g21
F1.0
sg9
F1.0
sg10
F1.0
sg24
F1.0
sg22
F1.0
ssg27
(dp3712
g21
I2
sg9
I15
sg10
I19
sg24
I3
sg22
I1
ssa(dp3713
g7
(dp3714
g9
I11
sg10
I16
ssg11
S'src.0.(1,2,3).4.5.dst'
p3715
sg13
I2483700
sg14
(dp3716
g18
I99999999
ssg19
(dp3717
g9
F1.0
sg10
F1.0
sg21
F1.0
sg22
F1.0
sg23
F1.0
sg24
F1.0
sg25
F1.0
sg26
F1.0
ssg27
(dp3718
g9
I11
sg10
I16
sg21
I5
sg22
I4
sg23
I6
sg24
I3
sg25
I2
sg26
I0
ssa(dp3719
g7
(dp3720
g9
I7
sg10
I19
ssg11
S'src.0.(1,2).dst'
p3721
sg13
I6428818
sg14
(dp3722
g18
I99999999
ssg19
(dp3723
g21
F1.0
sg9
F1.0
sg10
F1.0
sg24
F1.0
sg22
F1.0
ssg27
(dp3724
g21
I5
sg9
I7
sg10
I19
sg24
I1
sg22
I4
ssa(dp3725
g7
(dp3726
g9
I11
sg10
I20
ssg11
S'src.0.(1,2,3).dst'
p3727
sg13
I3004715
sg14
(dp3728
g18
I99999999
ssg19
(dp3729
g9
F1.0
sg10
F1.0
sg21
F1.0
sg22
F1.0
sg23
F1.0
sg24
F1.0
ssg27
(dp3730
g9
I11
sg10
I20
sg21
I4
sg22
I6
sg23
I5
sg24
I0
ssa(dp3731
g7
(dp3732
g9
I11
sg10
I14
ssg11
S'src.0.(1,2).dst'
p3733
sg13
I3165109
sg14
(dp3734
g18
I99999999
ssg19
(dp3735
g21
F1.0
sg9
F1.0
sg10
F1.0
sg24
F1.0
sg22
F1.0
ssg27
(dp3736
g21
I4
sg9
I11
sg10
I14
sg24
I6
sg22
I3
ssa(dp3737
g7
(dp3738
g9
I1
sg10
I10
ssg11
S'src.0.(1,2,3).dst'
p3739
sg13
I17134316
sg14
(dp3740
g18
I99999999
ssg19
(dp3741
g9
F1.0
sg10
F1.0
sg21
F1.0
sg22
F1.0
sg23
F1.0
sg24
F1.0
ssg27
(dp3742
g9
I1
sg10
I10
sg21
I3
sg22
I4
sg23
I6
sg24
I0
ssa(dp3743
g7
(dp3744
g9
I7
sg10
I19
ssg11
S'src.0.(1,2).dst'
p3745
sg13
I6428818
sg14
(dp3746
g18
I99999999
ssg19
(dp3747
g21
F1.0
sg9
F1.0
sg10
F1.0
sg24
F1.0
sg22
F1.0
ssg27
(dp3748
g21
I5
sg9
I7
sg10
I19
sg24
I1
sg22
I4
ssa(dp3749
g7
(dp3750
g9
I13
sg10
I14
ssg11
S'src.0.(1,2,3).dst'
p3751
sg13
I1138090
sg14
(dp3752
g18
I99999999
ssg19
(dp3753
g9
F1.0
sg10
F1.0
sg21
F1.0
sg22
F1.0
sg23
F1.0
sg24
F1.0
ssg27
(dp3754
g9
I13
sg10
I14
sg21
I0
sg22
I6
sg23
I4
sg24
I2
ssa(dp3755
g7
(dp3756
g9
I3
sg10
I15
ssg11
S'src.0.(1,2,3).4.dst'
p3757
sg13
I1919857
sg14
(dp3758
g18
I99999999
ssg19
(dp3759
g9
F1.0
sg10
F1.0
sg21
F1.0
sg22
F1.0
sg23
F1.0
sg24
F1.0
sg26
F1.0
ssg27
(dp3760
g9
I3
sg10
I15
sg21
I4
sg22
I1
sg23
I3
sg24
I6
sg26
I5
ssa(dp3761
g7
(dp3762
g9
I4
sg10
I15
ssg11
S'src.0.(1,2,3).dst'
p3763
sg13
I5877264
sg14
(dp3764
g18
I99999999
ssg19
(dp3765
g9
F1.0
sg10
F1.0
sg21
F1.0
sg22
F1.0
sg23
F1.0
sg24
F1.0
ssg27
(dp3766
g9
I4
sg10
I15
sg21
I5
sg22
I0
sg23
I2
sg24
I3
ssa(dp3767
g7
(dp3768
g9
I1
sg10
I15
ssg11
S'src.0.(1,2,3).4.dst'
p3769
sg13
I1248824
sg14
(dp3770
g18
I99999999
ssg19
(dp3771
g9
F1.0
sg10
F1.0
sg21
F1.0
sg22
F1.0
sg23
F1.0
sg24
F1.0
sg26
F1.0
ssg27
(dp3772
g9
I1
sg10
I15
sg21
I4
sg22
I2
sg23
I5
sg24
I6
sg26
I1
ssa(dp3773
g7
(dp3774
g9
I6
sg10
I13
ssg11
S'src.0.(1,2,3).dst'
p3775
sg13
I2710420
sg14
(dp3776
g18
I99999999
ssg19
(dp3777
g9
F1.0
sg10
F1.0
sg21
F1.0
sg22
F1.0
sg23
F1.0
sg24
F1.0
ssg27
(dp3778
g9
I6
sg10
I13
sg21
I4
sg22
I6
sg23
I1
sg24
I3
ssa(dp3779
g7
(dp3780
g9
I3
sg10
I7
ssg11
S'src.0.(1,2,3).4.5.dst'
p3781
sg13
I1383881
sg14
(dp3782
g18
I99999999
ssg19
(dp3783
g9
F1.0
sg10
F1.0
sg21
F1.0
sg22
F1.0
sg23
F1.0
sg24
F1.0
sg25
F1.0
sg26
F1.0
ssg27
(dp3784
g9
I3
sg10
I7
sg21
I2
sg22
I5
sg23
I0
sg24
I4
sg25
I3
sg26
I1
ssa(dp3785
g7
(dp3786
g9
I11
sg10
I20
ssg11
S'src.0.(1,2,3).4.5.dst'
p3787
sg13
I1130854
sg14
(dp3788
g18
I99999999
ssg19
(dp3789
g9
F1.0
sg10
F1.0
sg21
F1.0
sg22
F1.0
sg23
F1.0
sg24
F1.0
sg25
F1.0
sg26
F1.0
ssg27
(dp3790
g9
I11
sg10
I20
sg21
I3
sg22
I5
sg23
I1
sg24
I2
sg25
I4
sg26
I0
ssa(dp3791
g7
(dp3792
g9
I6
sg10
I8
ssg11
S'src.0.(1,2,3).dst'
p3793
sg13
I11133208
sg14
(dp3794
g18
I99999999
ssg19
(dp3795
g9
F1.0
sg10
F1.0
sg21
F1.0
sg22
F1.0
sg23
F1.0
sg24
F1.0
ssg27
(dp3796
g9
I6
sg10
I8
sg21
I6
sg22
I0
sg23
I1
sg24
I3
ssa(dp3797
g7
(dp3798
g9
I1
sg10
I15
ssg11
S'src.0.(1,2,3).4.5.dst'
p3799
sg13
I4179459
sg14
(dp3800
g18
I99999999
ssg19
(dp3801
g9
F1.0
sg10
F1.0
sg21
F1.0
sg22
F1.0
sg23
F1.0
sg24
F1.0
sg25
F1.0
sg26
F1.0
ssg27
(dp3802
g9
I1
sg10
I15
sg21
I0
sg22
I2
sg23
I3
sg24
I5
sg25
I4
sg26
I1
ssa(dp3803
g7
(dp3804
g9
I11
sg10
I16
ssg11
S'src.0.(1,2,3).4.dst'
p3805
sg13
I4095855
sg14
(dp3806
g18
I99999999
ssg19
(dp3807
g9
F1.0
sg10
F1.0
sg21
F1.0
sg22
F1.0
sg23
F1.0
sg24
F1.0
sg26
F1.0
ssg27
(dp3808
g9
I11
sg10
I16
sg21
I0
sg22
I2
sg23
I6
sg24
I1
sg26
I5
ssa(dp3809
g7
(dp3810
g9
I11
sg10
I15
ssg11
S'src.0.(1,2,3).dst'
p3811
sg13
I5297367
sg14
(dp3812
g18
I99999999
ssg19
(dp3813
g9
F1.0
sg10
F1.0
sg21
F1.0
sg22
F1.0
sg23
F1.0
sg24
F1.0
ssg27
(dp3814
g9
I11
sg10
I15
sg21
I4
sg22
I6
sg23
I5
sg24
I0
ssa(dp3815
g7
(dp3816
g9
I4
sg10
I15
ssg11
S'src.0.(1,2,3).dst'
p3817
sg13
I5877264
sg14
(dp3818
g18
I99999999
ssg19
(dp3819
g9
F1.0
sg10
F1.0
sg21
F1.0
sg22
F1.0
sg23
F1.0
sg24
F1.0
ssg27
(dp3820
g9
I4
sg10
I15
sg21
I5
sg22
I0
sg23
I2
sg24
I3
ssa(dp3821
g7
(dp3822
g9
I14
sg10
I20
ssg11
S'src.0.(1,2).dst'
p3823
sg13
I7053871
sg14
(dp3824
g18
I99999999
ssg19
(dp3825
g21
F1.0
sg9
F1.0
sg10
F1.0
sg24
F1.0
sg22
F1.0
ssg27
(dp3826
g21
I5
sg9
I14
sg10
I20
sg24
I0
sg22
I1
ssa(dp3827
g7
(dp3828
g9
I5
sg10
I15
ssg11
S'src.0.(1,2,3).4.dst'
p3829
sg13
I2725137
sg14
(dp3830
g18
I99999999
ssg19
(dp3831
g9
F1.0
sg10
F1.0
sg21
F1.0
sg22
F1.0
sg23
F1.0
sg24
F1.0
sg26
F1.0
ssg27
(dp3832
g9
I5
sg10
I15
sg21
I5
sg22
I1
sg23
I0
sg24
I4
sg26
I6
ssa(dp3833
g7
(dp3834
g9
I14
sg10
I15
ssg11
S'src.0.(1,2,3).4.5.dst'
p3835
sg13
I6961711
sg14
(dp3836
g18
I99999999
ssg19
(dp3837
g9
F1.0
sg10
F1.0
sg21
F1.0
sg22
F1.0
sg23
F1.0
sg24
F1.0
sg25
F1.0
sg26
F1.0
ssg27
(dp3838
g9
I14
sg10
I15
sg21
I6
sg22
I0
sg23
I3
sg24
I1
sg25
I5
sg26
I2
ssa(dp3839
g7
(dp3840
g9
I4
sg10
I15
ssg11
S'src.0.(1,2).dst'
p3841
sg13
I13810050
sg14
(dp3842
g18
I99999999
ssg19
(dp3843
g21
F1.0
sg9
F1.0
sg10
F1.0
sg24
F1.0
sg22
F1.0
ssg27
(dp3844
g21
I2
sg9
I4
sg10
I15
sg24
I0
sg22
I6
ssa(dp3845
g7
(dp3846
g9
I14
sg10
I19
ssg11
S'src.0.(1,2).dst'
p3847
sg13
I4449206
sg14
(dp3848
g18
I99999999
ssg19
(dp3849
g21
F1.0
sg9
F1.0
sg10
F1.0
sg24
F1.0
sg22
F1.0
ssg27
(dp3850
g21
I0
sg9
I14
sg10
I19
sg24
I2
sg22
I5
ssa(dp3851
g7
(dp3852
g9
I11
sg10
I16
ssg11
S'src.0.(1,2,3).4.5.dst'
p3853
sg13
I2187347
sg14
(dp3854
g18
I99999999
ssg19
(dp3855
g9
F1.0
sg10
F1.0
sg21
F1.0
sg22
F1.0
sg23
F1.0
sg24
F1.0
sg25
F1.0
sg26
F1.0
ssg27
(dp3856
g9
I11
sg10
I16
sg21
I5
sg22
I4
sg23
I2
sg24
I1
sg25
I3
sg26
I0
ssa(dp3857
g7
(dp3858
g9
I11
sg10
I16
ssg11
S'src.0.(1,2,3).4.dst'
p3859
sg13
I1219329
sg14
(dp3860
g18
I99999999
ssg19
(dp3861
g9
F1.0
sg10
F1.0
sg21
F1.0
sg22
F1.0
sg23
F1.0
sg24
F1.0
sg26
F1.0
ssg27
(dp3862
g9
I11
sg10
I16
sg21
I2
sg22
I4
sg23
I0
sg24
I3
sg26
I1
ssa(dp3863
g7
(dp3864
g9
I9
sg10
I15
ssg11
S'src.0.(1,2,3).4.5.dst'
p3865
sg13
I4486788
sg14
(dp3866
g18
I99999999
ssg19
(dp3867
g9
F1.0
sg10
F1.0
sg21
F1.0
sg22
F1.0
sg23
F1.0
sg24
F1.0
sg25
F1.0
sg26
F1.0
ssg27
(dp3868
g9
I9
sg10
I15
sg21
I6
sg22
I4
sg23
I0
sg24
I5
sg25
I3
sg26
I2
ssa(dp3869
g7
(dp3870
g9
I15
sg10
I17
ssg11
S'src.0.(1,2,3).4.5.dst'
p3871
sg13
I6042414
sg14
(dp3872
g18
I99999999
ssg19
(dp3873
g9
F1.0
sg10
F1.0
sg21
F1.0
sg22
F1.0
sg23
F1.0
sg24
F1.0
sg25
F1.0
sg26
F1.0
ssg27
(dp3874
g9
I15
sg10
I17
sg21
I5
sg22
I2
sg23
I6
sg24
I1
sg25
I0
sg26
I3
ssa(dp3875
g7
(dp3876
g9
I11
sg10
I20
ssg11
S'src.0.(1,2,3).dst'
p3877
sg13
I3004715
sg14
(dp3878
g18
I99999999
ssg19
(dp3879
g9
F1.0
sg10
F1.0
sg21
F1.0
sg22
F1.0
sg23
F1.0
sg24
F1.0
ssg27
(dp3880
g9
I11
sg10
I20
sg21
I4
sg22
I6
sg23
I5
sg24
I0
ssa(dp3881
g7
(dp3882
g9
I9
sg10
I15
ssg11
S'src.0.(1,2,3).4.5.dst'
p3883
sg13
I4486788
sg14
(dp3884
g18
I99999999
ssg19
(dp3885
g9
F1.0
sg10
F1.0
sg21
F1.0
sg22
F1.0
sg23
F1.0
sg24
F1.0
sg25
F1.0
sg26
F1.0
ssg27
(dp3886
g9
I9
sg10
I15
sg21
I6
sg22
I4
sg23
I0
sg24
I5
sg25
I3
sg26
I2
ssa(dp3887
g7
(dp3888
g9
I15
sg10
I16
ssg11
S'src.0.(1,2).dst'
p3889
sg13
I7536966
sg14
(dp3890
g18
I99999999
ssg19
(dp3891
g21
F1.0
sg9
F1.0
sg10
F1.0
sg24
F1.0
sg22
F1.0
ssg27
(dp3892
g21
I4
sg9
I15
sg10
I16
sg24
I6
sg22
I3
ssa(dp3893
g7
(dp3894
g9
I3
sg10
I15
ssg11
S'src.0.(1,2,3).4.dst'
p3895
sg13
I1919857
sg14
(dp3896
g18
I99999999
ssg19
(dp3897
g9
F1.0
sg10
F1.0
sg21
F1.0
sg22
F1.0
sg23
F1.0
sg24
F1.0
sg26
F1.0
ssg27
(dp3898
g9
I3
sg10
I15
sg21
I4
sg22
I1
sg23
I3
sg24
I6
sg26
I5
ssa(dp3899
g7
(dp3900
g9
I7
sg10
I19
ssg11
S'src.0.(1,2,3).dst'
p3901
sg13
I3284884
sg14
(dp3902
g18
I99999999
ssg19
(dp3903
g9
F1.0
sg10
F1.0
sg21
F1.0
sg22
F1.0
sg23
F1.0
sg24
F1.0
ssg27
(dp3904
g9
I7
sg10
I19
sg21
I0
sg22
I4
sg23
I6
sg24
I5
ssa(dp3905
g7
(dp3906
g9
I1
sg10
I15
ssg11
S'src.0.(1,2,3).4.dst'
p3907
sg13
I1248824
sg14
(dp3908
g18
I99999999
ssg19
(dp3909
g9
F1.0
sg10
F1.0
sg21
F1.0
sg22
F1.0
sg23
F1.0
sg24
F1.0
sg26
F1.0
ssg27
(dp3910
g9
I1
sg10
I15
sg21
I4
sg22
I2
sg23
I5
sg24
I6
sg26
I1
ssa(dp3911
g7
(dp3912
g9
I14
sg10
I17
ssg11
S'src.0.(1,2,3).dst'
p3913
sg13
I4920487
sg14
(dp3914
g18
I99999999
ssg19
(dp3915
g9
F1.0
sg10
F1.0
sg21
F1.0
sg22
F1.0
sg23
F1.0
sg24
F1.0
ssg27
(dp3916
g9
I14
sg10
I17
sg21
I4
sg22
I2
sg23
I3
sg24
I6
ssa(dp3917
g7
(dp3918
g9
I3
sg10
I14
ssg11
S'src.0.(1,2,3).dst'
p3919
sg13
I1067859
sg14
(dp3920
g18
I99999999
ssg19
(dp3921
g9
F1.0
sg10
F1.0
sg21
F1.0
sg22
F1.0
sg23
F1.0
sg24
F1.0
ssg27
(dp3922
g9
I3
sg10
I14
sg21
I3
sg22
I2
sg23
I4
sg24
I1
ssa(dp3923
g7
(dp3924
g9
I10
sg10
I14
ssg11
S'src.0.(1,2,3).4.5.dst'
p3925
sg13
I812773
sg14
(dp3926
g18
I99999999
ssg19
(dp3927
g9
F1.0
sg10
F1.0
sg21
F1.0
sg22
F1.0
sg23
F1.0
sg24
F1.0
sg25
F1.0
sg26
F1.0
ssg27
(dp3928
g9
I10
sg10
I14
sg21
I2
sg22
I3
sg23
I0
sg24
I5
sg25
I1
sg26
I6
ssa(dp3929
g7
(dp3930
g9
I6
sg10
I15
ssg11
S'src.0.(1,2,3).dst'
p3931
sg13
I4116448
sg14
(dp3932
g18
I99999999
ssg19
(dp3933
g9
F1.0
sg10
F1.0
sg21
F1.0
sg22
F1.0
sg23
F1.0
sg24
F1.0
ssg27
(dp3934
g9
I6
sg10
I15
sg21
I0
sg22
I4
sg23
I2
sg24
I1
ssa(dp3935
g7
(dp3936
g9
I13
sg10
I15
ssg11
S'src.0.(1,2).dst'
p3937
sg13
I5527630
sg14
(dp3938
g18
I99999999
ssg19
(dp3939
g21
F1.0
sg9
F1.0
sg10
F1.0
sg24
F1.0
sg22
F1.0
ssg27
(dp3940
g21
I6
sg9
I13
sg10
I15
sg24
I4
sg22
I2
ssa(dp3941
g7
(dp3942
g9
I10
sg10
I15
ssg11
S'src.0.(1,2).dst'
p3943
sg13
I2321921
sg14
(dp3944
g18
I99999999
ssg19
(dp3945
g21
F1.0
sg9
F1.0
sg10
F1.0
sg24
F1.0
sg22
F1.0
ssg27
(dp3946
g21
I4
sg9
I10
sg10
I15
sg24
I2
sg22
I0
ssa(dp3947
g7
(dp3948
g9
I15
sg10
I19
ssg11
S'src.0.(1,2).dst'
p3949
sg13
I6181203
sg14
(dp3950
g18
I99999999
ssg19
(dp3951
g21
F1.0
sg9
F1.0
sg10
F1.0
sg24
F1.0
sg22
F1.0
ssg27
(dp3952
g21
I2
sg9
I15
sg10
I19
sg24
I3
sg22
I1
ssa(dp3953
g7
(dp3954
g9
I7
sg10
I19
ssg11
S'src.0.(1,2,3).dst'
p3955
sg13
I3284884
sg14
(dp3956
g18
I99999999
ssg19
(dp3957
g9
F1.0
sg10
F1.0
sg21
F1.0
sg22
F1.0
sg23
F1.0
sg24
F1.0
ssg27
(dp3958
g9
I7
sg10
I19
sg21
I0
sg22
I4
sg23
I6
sg24
I5
ssa(dp3959
g7
(dp3960
g9
I6
sg10
I11
ssg11
S'src.0.(1,2,3).4.5.dst'
p3961
sg13
I3834024
sg14
(dp3962
g18
I99999999
ssg19
(dp3963
g9
F1.0
sg10
F1.0
sg21
F1.0
sg22
F1.0
sg23
F1.0
sg24
F1.0
sg25
F1.0
sg26
F1.0
ssg27
(dp3964
g9
I6
sg10
I11
sg21
I4
sg22
I2
sg23
I5
sg24
I1
sg25
I6
sg26
I0
ssa(dp3965
g7
(dp3966
g9
I13
sg10
I15
ssg11
S'src.0.(1,2).dst'
p3967
sg13
I1617533
sg14
(dp3968
g18
I99999999
ssg19
(dp3969
g21
F1.0
sg9
F1.0
sg10
F1.0
sg24
F1.0
sg22
F1.0
ssg27
(dp3970
g21
I2
sg9
I13
sg10
I15
sg24
I4
sg22
I5
ssa(dp3971
g7
(dp3972
g9
I15
sg10
I19
ssg11
S'src.0.(1,2).dst'
p3973
sg13
I5957353
sg14
(dp3974
g18
I99999999
ssg19
(dp3975
g21
F1.0
sg9
F1.0
sg10
F1.0
sg24
F1.0
sg22
F1.0
ssg27
(dp3976
g21
I4
sg9
I15
sg10
I19
sg24
I3
sg22
I5
ssa(dp3977
g7
(dp3978
g9
I5
sg10
I15
ssg11
S'src.0.(1,2,3).dst'
p3979
sg13
I4350510
sg14
(dp3980
g18
I99999999
ssg19
(dp3981
g9
F1.0
sg10
F1.0
sg21
F1.0
sg22
F1.0
sg23
F1.0
sg24
F1.0
ssg27
(dp3982
g9
I5
sg10
I15
sg21
I0
sg22
I3
sg23
I6
sg24
I2
ssa(dp3983
g7
(dp3984
g9
I15
sg10
I16
ssg11
S'src.0.(1,2,3).dst'
p3985
sg13
I1498346
sg14
(dp3986
g18
I99999999
ssg19
(dp3987
g9
F1.0
sg10
F1.0
sg21
F1.0
sg22
F1.0
sg23
F1.0
sg24
F1.0
ssg27
(dp3988
g9
I15
sg10
I16
sg21
I1
sg22
I5
sg23
I6
sg24
I0
ssa(dp3989
g7
(dp3990
g9
I15
sg10
I20
ssg11
S'src.0.(1,2,3).4.dst'
p3991
sg13
I25342157
sg14
(dp3992
g18
I99999999
ssg19
(dp3993
g9
F1.0
sg10
F1.0
sg21
F1.0
sg22
F1.0
sg23
F1.0
sg24
F1.0
sg26
F1.0
ssg27
(dp3994
g9
I15
sg10
I20
sg21
I0
sg22
I4
sg23
I5
sg24
I2
sg26
I6
ssa(dp3995
g7
(dp3996
g9
I11
sg10
I20
ssg11
S'src.0.(1,2,3).dst'
p3997
sg13
I3004715
sg14
(dp3998
g18
I99999999
ssg19
(dp3999
g9
F1.0
sg10
F1.0
sg21
F1.0
sg22
F1.0
sg23
F1.0
sg24
F1.0
ssg27
(dp4000
g9
I11
sg10
I20
sg21
I4
sg22
I6
sg23
I5
sg24
I0
ssa(dp4001
g7
(dp4002
g9
I9
sg10
I13
ssg11
S'src.0.(1,2,3).4.dst'
p4003
sg13
I822540
sg14
(dp4004
g18
I99999999
ssg19
(dp4005
g9
F1.0
sg10
F1.0
sg21
F1.0
sg22
F1.0
sg23
F1.0
sg24
F1.0
sg26
F1.0
ssg27
(dp4006
g9
I9
sg10
I13
sg21
I5
sg22
I4
sg23
I2
sg24
I1
sg26
I0
ssa(dp4007
g7
(dp4008
g9
I14
sg10
I17
ssg11
S'src.0.(1,2,3).4.dst'
p4009
sg13
I2582409
sg14
(dp4010
g18
I99999999
ssg19
(dp4011
g9
F1.0
sg10
F1.0
sg21
F1.0
sg22
F1.0
sg23
F1.0
sg24
F1.0
sg26
F1.0
ssg27
(dp4012
g9
I14
sg10
I17
sg21
I0
sg22
I1
sg23
I3
sg24
I2
sg26
I4
ssa(dp4013
g7
(dp4014
g9
I6
sg10
I14
ssg11
S'src.0.(1,2,3).dst'
p4015
sg13
I2460964
sg14
(dp4016
g18
I99999999
ssg19
(dp4017
g9
F1.0
sg10
F1.0
sg21
F1.0
sg22
F1.0
sg23
F1.0
sg24
F1.0
ssg27
(dp4018
g9
I6
sg10
I14
sg21
I6
sg22
I2
sg23
I4
sg24
I3
ssa(dp4019
g7
(dp4020
g9
I12
sg10
I16
ssg11
S'src.0.(1,2,3).4.5.dst'
p4021
sg13
I5067296
sg14
(dp4022
g18
I99999999
ssg19
(dp4023
g9
F1.0
sg10
F1.0
sg21
F1.0
sg22
F1.0
sg23
F1.0
sg24
F1.0
sg25
F1.0
sg26
F1.0
ssg27
(dp4024
g9
I12
sg10
I16
sg21
I0
sg22
I2
sg23
I1
sg24
I3
sg25
I6
sg26
I4
ssa(dp4025
g7
(dp4026
g9
I14
sg10
I19
ssg11
S'src.0.(1,2).dst'
p4027
sg13
I4312493
sg14
(dp4028
g18
I99999999
ssg19
(dp4029
g21
F1.0
sg9
F1.0
sg10
F1.0
sg24
F1.0
sg22
F1.0
ssg27
(dp4030
g21
I1
sg9
I14
sg10
I19
sg24
I5
sg22
I0
ssa(dp4031
g7
(dp4032
g9
I9
sg10
I15
ssg11
S'src.0.(1,2,3).4.5.dst'
p4033
sg13
I5353702
sg14
(dp4034
g18
I99999999
ssg19
(dp4035
g9
F1.0
sg10
F1.0
sg21
F1.0
sg22
F1.0
sg23
F1.0
sg24
F1.0
sg25
F1.0
sg26
F1.0
ssg27
(dp4036
g9
I9
sg10
I15
sg21
I1
sg22
I0
sg23
I2
sg24
I4
sg25
I3
sg26
I6
ssa(dp4037
g7
(dp4038
g9
I15
sg10
I16
ssg11
S'src.0.(1,2,3).dst'
p4039
sg13
I1498346
sg14
(dp4040
g18
I99999999
ssg19
(dp4041
g9
F1.0
sg10
F1.0
sg21
F1.0
sg22
F1.0
sg23
F1.0
sg24
F1.0
ssg27
(dp4042
g9
I15
sg10
I16
sg21
I1
sg22
I5
sg23
I6
sg24
I0
ssas.